
K:\dspTerm2\Assignment\assignmentu1453415.cof:     file format coff-pic30

Disassembly of section .ivt._ADCInterrupt:

0000002a <.ivt._ADCInterrupt>:
  2a:	c4 01 00    	nop       
Disassembly of section .ivt._AddressError:

00000008 <.ivt._AddressError>:
   8:	c4 01 00    	nop       
Disassembly of section .aivt._AltADCInterrupt:

000000aa <.aivt._AltADCInterrupt>:
  aa:	c4 01 00    	nop       
Disassembly of section .aivt._AltAddressError:

00000088 <.aivt._AltAddressError>:
  88:	c4 01 00    	nop       
Disassembly of section .aivt._AltC1Interrupt:

000000ca <.aivt._AltC1Interrupt>:
  ca:	c4 01 00    	nop       
Disassembly of section .aivt._AltC2Interrupt:

000000e0 <.aivt._AltC2Interrupt>:
  e0:	c4 01 00    	nop       
Disassembly of section .aivt._AltCNInterrupt:

000000b2 <.aivt._AltCNInterrupt>:
  b2:	c4 01 00    	nop       
Disassembly of section .aivt._AltDCIInterrupt:

000000e6 <.aivt._AltDCIInterrupt>:
  e6:	c4 01 00    	nop       
Disassembly of section .aivt._AltFLTAInterrupt:

000000ea <.aivt._AltFLTAInterrupt>:
  ea:	c4 01 00    	nop       
Disassembly of section .aivt._AltFLTBInterrupt:

000000ec <.aivt._AltFLTBInterrupt>:
  ec:	c4 01 00    	nop       
Disassembly of section .aivt._AltIC1Interrupt:

00000096 <.aivt._AltIC1Interrupt>:
  96:	c4 01 00    	nop       
Disassembly of section .aivt._AltIC2Interrupt:

0000009c <.aivt._AltIC2Interrupt>:
  9c:	c4 01 00    	nop       
Disassembly of section .aivt._AltIC3Interrupt:

000000cc <.aivt._AltIC3Interrupt>:
  cc:	c4 01 00    	nop       
Disassembly of section .aivt._AltIC4Interrupt:

000000ce <.aivt._AltIC4Interrupt>:
  ce:	c4 01 00    	nop       
Disassembly of section .aivt._AltIC5Interrupt:

000000d0 <.aivt._AltIC5Interrupt>:
  d0:	c4 01 00    	nop       
Disassembly of section .aivt._AltIC6Interrupt:

000000d2 <.aivt._AltIC6Interrupt>:
  d2:	c4 01 00    	nop       
Disassembly of section .aivt._AltIC7Interrupt:

000000b6 <.aivt._AltIC7Interrupt>:
  b6:	c4 01 00    	nop       
Disassembly of section .aivt._AltIC8Interrupt:

000000b8 <.aivt._AltIC8Interrupt>:
  b8:	c4 01 00    	nop       
Disassembly of section .aivt._AltINT0Interrupt:

00000094 <.aivt._AltINT0Interrupt>:
  94:	c4 01 00    	nop       
Disassembly of section .aivt._AltINT1Interrupt:

000000b4 <.aivt._AltINT1Interrupt>:
  b4:	c4 01 00    	nop       
Disassembly of section .aivt._AltINT2Interrupt:

000000c2 <.aivt._AltINT2Interrupt>:
  c2:	c4 01 00    	nop       
Disassembly of section .aivt._AltINT3Interrupt:

000000dc <.aivt._AltINT3Interrupt>:
  dc:	c4 01 00    	nop       
Disassembly of section .aivt._AltINT4Interrupt:

000000de <.aivt._AltINT4Interrupt>:
  de:	c4 01 00    	nop       
Disassembly of section .aivt._AltLVDInterrupt:

000000e8 <.aivt._AltLVDInterrupt>:
  e8:	c4 01 00    	nop       
Disassembly of section .aivt._AltMI2CInterrupt:

000000b0 <.aivt._AltMI2CInterrupt>:
  b0:	c4 01 00    	nop       
Disassembly of section .aivt._AltMathError:

0000008c <.aivt._AltMathError>:
  8c:	c4 01 00    	nop       
Disassembly of section .aivt._AltNVMInterrupt:

000000ac <.aivt._AltNVMInterrupt>:
  ac:	c4 01 00    	nop       
Disassembly of section .aivt._AltOC1Interrupt:

00000098 <.aivt._AltOC1Interrupt>:
  98:	c4 01 00    	nop       
Disassembly of section .aivt._AltOC2Interrupt:

0000009e <.aivt._AltOC2Interrupt>:
  9e:	c4 01 00    	nop       
Disassembly of section .aivt._AltOC3Interrupt:

000000ba <.aivt._AltOC3Interrupt>:
  ba:	c4 01 00    	nop       
Disassembly of section .aivt._AltOC4Interrupt:

000000bc <.aivt._AltOC4Interrupt>:
  bc:	c4 01 00    	nop       
Disassembly of section .aivt._AltOC5Interrupt:

000000d4 <.aivt._AltOC5Interrupt>:
  d4:	c4 01 00    	nop       
Disassembly of section .aivt._AltOC6Interrupt:

000000d6 <.aivt._AltOC6Interrupt>:
  d6:	c4 01 00    	nop       
Disassembly of section .aivt._AltOC7Interrupt:

000000d8 <.aivt._AltOC7Interrupt>:
  d8:	c4 01 00    	nop       
Disassembly of section .aivt._AltOC8Interrupt:

000000da <.aivt._AltOC8Interrupt>:
  da:	c4 01 00    	nop       
Disassembly of section .aivt._AltOscillatorFail:

00000086 <.aivt._AltOscillatorFail>:
  86:	c4 01 00    	nop       
Disassembly of section .aivt._AltPWMInterrupt:

000000e2 <.aivt._AltPWMInterrupt>:
  e2:	c4 01 00    	nop       
Disassembly of section .aivt._AltQEIInterrupt:

000000e4 <.aivt._AltQEIInterrupt>:
  e4:	c4 01 00    	nop       
Disassembly of section .aivt._AltReservedTrap0:

00000084 <.aivt._AltReservedTrap0>:
  84:	c4 01 00    	nop       
Disassembly of section .aivt._AltReservedTrap5:

0000008e <.aivt._AltReservedTrap5>:
  8e:	c4 01 00    	nop       
Disassembly of section .aivt._AltReservedTrap6:

00000090 <.aivt._AltReservedTrap6>:
  90:	c4 01 00    	nop       
Disassembly of section .aivt._AltReservedTrap7:

00000092 <.aivt._AltReservedTrap7>:
  92:	c4 01 00    	nop       
Disassembly of section .aivt._AltSI2CInterrupt:

000000ae <.aivt._AltSI2CInterrupt>:
  ae:	c4 01 00    	nop       
Disassembly of section .aivt._AltSPI1Interrupt:

000000a4 <.aivt._AltSPI1Interrupt>:
  a4:	c4 01 00    	nop       
Disassembly of section .aivt._AltSPI2Interrupt:

000000c8 <.aivt._AltSPI2Interrupt>:
  c8:	c4 01 00    	nop       
Disassembly of section .aivt._AltStackError:

0000008a <.aivt._AltStackError>:
  8a:	c4 01 00    	nop       
Disassembly of section .aivt._AltT1Interrupt:

0000009a <.aivt._AltT1Interrupt>:
  9a:	c4 01 00    	nop       
Disassembly of section .aivt._AltT2Interrupt:

000000a0 <.aivt._AltT2Interrupt>:
  a0:	c4 01 00    	nop       
Disassembly of section .aivt._AltT3Interrupt:

000000a2 <.aivt._AltT3Interrupt>:
  a2:	c4 01 00    	nop       
Disassembly of section .aivt._AltT4Interrupt:

000000be <.aivt._AltT4Interrupt>:
  be:	c4 01 00    	nop       
Disassembly of section .aivt._AltT5Interrupt:

000000c0 <.aivt._AltT5Interrupt>:
  c0:	c4 01 00    	nop       
Disassembly of section .aivt._AltU1RXInterrupt:

000000a6 <.aivt._AltU1RXInterrupt>:
  a6:	c4 01 00    	nop       
Disassembly of section .aivt._AltU1TXInterrupt:

000000a8 <.aivt._AltU1TXInterrupt>:
  a8:	c4 01 00    	nop       
Disassembly of section .aivt._AltU2RXInterrupt:

000000c4 <.aivt._AltU2RXInterrupt>:
  c4:	c4 01 00    	nop       
Disassembly of section .aivt._AltU2TXInterrupt:

000000c6 <.aivt._AltU2TXInterrupt>:
  c6:	c4 01 00    	nop       
Disassembly of section .ivt._C1Interrupt:

0000004a <.ivt._C1Interrupt>:
  4a:	c4 01 00    	nop       
Disassembly of section .ivt._C2Interrupt:

00000060 <.ivt._C2Interrupt>:
  60:	c4 01 00    	nop       
Disassembly of section .ivt._CNInterrupt:

00000032 <.ivt._CNInterrupt>:
  32:	c4 01 00    	nop       
Disassembly of section .ivt._DCIInterrupt:

00000066 <.ivt._DCIInterrupt>:
  66:	c4 01 00    	nop       
Disassembly of section .ivt._FLTAInterrupt:

0000006a <.ivt._FLTAInterrupt>:
  6a:	c4 01 00    	nop       
Disassembly of section .ivt._FLTBInterrupt:

0000006c <.ivt._FLTBInterrupt>:
  6c:	c4 01 00    	nop       
Disassembly of section .ivt._IC1Interrupt:

00000016 <.ivt._IC1Interrupt>:
  16:	c4 01 00    	nop       
Disassembly of section .ivt._IC2Interrupt:

0000001c <.ivt._IC2Interrupt>:
  1c:	c4 01 00    	nop       
Disassembly of section .ivt._IC3Interrupt:

0000004c <.ivt._IC3Interrupt>:
  4c:	c4 01 00    	nop       
Disassembly of section .ivt._IC4Interrupt:

0000004e <.ivt._IC4Interrupt>:
  4e:	c4 01 00    	nop       
Disassembly of section .ivt._IC5Interrupt:

00000050 <.ivt._IC5Interrupt>:
  50:	c4 01 00    	nop       
Disassembly of section .ivt._IC6Interrupt:

00000052 <.ivt._IC6Interrupt>:
  52:	c4 01 00    	nop       
Disassembly of section .ivt._IC7Interrupt:

00000036 <.ivt._IC7Interrupt>:
  36:	c4 01 00    	nop       
Disassembly of section .ivt._IC8Interrupt:

00000038 <.ivt._IC8Interrupt>:
  38:	c4 01 00    	nop       
Disassembly of section .ivt._INT0Interrupt:

00000014 <.ivt._INT0Interrupt>:
  14:	c4 01 00    	nop       
Disassembly of section .ivt._INT1Interrupt:

00000034 <.ivt._INT1Interrupt>:
  34:	c4 01 00    	nop       
Disassembly of section .ivt._INT2Interrupt:

00000042 <.ivt._INT2Interrupt>:
  42:	c4 01 00    	nop       
Disassembly of section .ivt._INT3Interrupt:

0000005c <.ivt._INT3Interrupt>:
  5c:	c4 01 00    	nop       
Disassembly of section .ivt._INT4Interrupt:

0000005e <.ivt._INT4Interrupt>:
  5e:	c4 01 00    	nop       
Disassembly of section .ivt._LVDInterrupt:

00000068 <.ivt._LVDInterrupt>:
  68:	c4 01 00    	nop       
Disassembly of section .ivt._MI2CInterrupt:

00000030 <.ivt._MI2CInterrupt>:
  30:	c4 01 00    	nop       
Disassembly of section .ivt._MathError:

0000000c <.ivt._MathError>:
   c:	c4 01 00    	nop       
Disassembly of section .ivt._NVMInterrupt:

0000002c <.ivt._NVMInterrupt>:
  2c:	c4 01 00    	nop       
Disassembly of section .ivt._OC1Interrupt:

00000018 <.ivt._OC1Interrupt>:
  18:	c4 01 00    	nop       
Disassembly of section .ivt._OC2Interrupt:

0000001e <.ivt._OC2Interrupt>:
  1e:	c4 01 00    	nop       
Disassembly of section .ivt._OC3Interrupt:

0000003a <.ivt._OC3Interrupt>:
  3a:	c4 01 00    	nop       
Disassembly of section .ivt._OC4Interrupt:

0000003c <.ivt._OC4Interrupt>:
  3c:	c4 01 00    	nop       
Disassembly of section .ivt._OC5Interrupt:

00000054 <.ivt._OC5Interrupt>:
  54:	c4 01 00    	nop       
Disassembly of section .ivt._OC6Interrupt:

00000056 <.ivt._OC6Interrupt>:
  56:	c4 01 00    	nop       
Disassembly of section .ivt._OC7Interrupt:

00000058 <.ivt._OC7Interrupt>:
  58:	c4 01 00    	nop       
Disassembly of section .ivt._OC8Interrupt:

0000005a <.ivt._OC8Interrupt>:
  5a:	c4 01 00    	nop       
Disassembly of section .ivt._OscillatorFail:

00000006 <.ivt._OscillatorFail>:
   6:	c4 01 00    	nop       
Disassembly of section .ivt._PWMInterrupt:

00000062 <.ivt._PWMInterrupt>:
  62:	c4 01 00    	nop       
Disassembly of section .ivt._QEIInterrupt:

00000064 <.ivt._QEIInterrupt>:
  64:	c4 01 00    	nop       
Disassembly of section .ivt._ReservedTrap0:

00000004 <.ivt._ReservedTrap0>:
   4:	c4 01 00    	nop       
Disassembly of section .ivt._ReservedTrap5:

0000000e <.ivt._ReservedTrap5>:
   e:	c4 01 00    	nop       
Disassembly of section .ivt._ReservedTrap6:

00000010 <.ivt._ReservedTrap6>:
  10:	c4 01 00    	nop       
Disassembly of section .ivt._ReservedTrap7:

00000012 <.ivt._ReservedTrap7>:
  12:	c4 01 00    	nop       
Disassembly of section .ivt._SI2CInterrupt:

0000002e <.ivt._SI2CInterrupt>:
  2e:	c4 01 00    	nop       
Disassembly of section .ivt._SPI1Interrupt:

00000024 <.ivt._SPI1Interrupt>:
  24:	c4 01 00    	nop       
Disassembly of section .ivt._SPI2Interrupt:

00000048 <.ivt._SPI2Interrupt>:
  48:	c4 01 00    	nop       
Disassembly of section .ivt._StackError:

0000000a <.ivt._StackError>:
   a:	c4 01 00    	nop       
Disassembly of section .ivt._T5Interrupt:

00000040 <.ivt._T5Interrupt>:
  40:	c4 01 00    	nop       
Disassembly of section .ivt._U1RXInterrupt:

00000026 <.ivt._U1RXInterrupt>:
  26:	c4 01 00    	nop       
Disassembly of section .ivt._U1TXInterrupt:

00000028 <.ivt._U1TXInterrupt>:
  28:	c4 01 00    	nop       
Disassembly of section .ivt._U2RXInterrupt:

00000044 <.ivt._U2RXInterrupt>:
  44:	c4 01 00    	nop       
Disassembly of section .ivt._U2TXInterrupt:

00000046 <.ivt._U2TXInterrupt>:
  46:	c4 01 00    	nop       
Disassembly of section .reset:

00000000 <.reset>:
   0:	00 01 04    	goto      0x100 <__reset>
   2:	00 00 00 
Disassembly of section .text:

00000100 <__reset>:
 100:	8f e9 20    	mov.w     #0xe98, w15
 102:	0e ff 20    	mov.w     #0xff0, w14
 104:	0e 01 88    	mov.w     w14, 0x20
 106:	00 00 00    	nop       
 108:	00 00 20    	mov.w     #0x0, w0
 10a:	00 00 e0    	cp0.w     w0
 10c:	02 00 32    	bra       Z, 0x112 <CORCON_RESET>
 10e:	00 01 20    	mov.w     #0x10, w0
 110:	20 02 88    	mov.w     w0, 0x44

00000112 <CORCON_RESET>:
 112:	0c 00 07    	rcall     0x12c <__psv_init>
 114:	40 eb 22    	mov.w     #0x2eb4, w0
 116:	01 00 20    	mov.w     #0x0, w1
 118:	1f 00 07    	rcall     0x158 <__data_init> <__data_init_standard> <.init>
 11a:	00 00 20    	mov.w     #0x0, w0
 11c:	00 00 e0    	cp0.w     w0
 11e:	02 00 32    	bra       Z, 0x124 <L11>
 120:	00 00 02    	call      0x0 <__reset-0x100>
 122:	00 00 00 

00000124 <L11>:
 124:	5c 2c 02    	call      0x2c5c <_main>
 126:	00 00 00 
 128:	00 40 da    	.pword 0xda4000
 12a:	00 00 fe    	reset     

0000012c <__psv_init>:
 12c:	44 40 a9    	bclr.b    0x44, #0x2
 12e:	20 48 20    	mov.w     #0x482, w0
 130:	00 00 e0    	cp0.w     w0
 132:	03 00 32    	bra       Z, 0x13a <L12>
 134:	00 00 20    	mov.w     #0x0, w0
 136:	a0 01 88    	mov.w     w0, 0x34
 138:	44 40 a8    	bset.b    0x44, #0x2

0000013a <L12>:
 13a:	00 00 06    	return    

0000013c <___delay32>:
 13c:	f0 3f b1    	sub.w     #0x3ff, w0
 13e:	01 80 b1    	subb.w    #0x0, w1
 140:	06 00 35    	bra       LT, 0x14e <L21>

00000142 <L41>:
 142:	ee 03 09    	repeat    #0x3ee
 144:	00 00 00    	nop       
 146:	40 3f b1    	sub.w     #0x3f4, w0
 148:	01 80 b1    	subb.w    #0x0, w1
 14a:	fb ff 3d    	bra       GE, 0x142 <L41>
 14c:	10 00 b0    	add.w     #0x1, w0

0000014e <L21>:
 14e:	20 3f b0    	add.w     #0x3f2, w0
 150:	02 00 35    	bra       LT, 0x156 <L31>
 152:	00 80 09    	repeat    w0
 154:	00 00 00    	nop       

00000156 <L31>:
 156:	00 00 06    	return    

00000158 <__data_init>:
 158:	91 01 88    	mov.w     w1, 0x32
 15a:	80 00 78    	mov.w     w0, w1
 15c:	00 00 eb    	clr.w     w0
 15e:	15 00 37    	bra       0x18a <L41>

00000160 <L11>:
 160:	e2 80 40    	add.w     w1, #0x2, w1
 162:	32 a0 b4    	addc.w    0x32
 164:	91 01 ba    	tblrdl.w  [w1], w3
 166:	e2 80 40    	add.w     w1, #0x2, w1
 168:	32 a0 b4    	addc.w    0x32
 16a:	91 02 ba    	tblrdl.w  [w1], w5
 16c:	e2 80 40    	add.w     w1, #0x2, w1
 16e:	32 a0 b4    	addc.w    0x32
 170:	00 02 eb    	clr.w     w4
 172:	47 2b de    	lsr.w     w5, #0x7, w6
 174:	f5 07 b2    	and.w     #0x7f, w5
 176:	60 2c e1    	cp.b      w5, #0x0
 178:	04 00 3a    	bra       NZ, 0x182 <L21>

0000017a <L91>:
 17a:	00 59 eb    	clr.b     [w2++]
 17c:	83 01 e9    	dec.w     w3, w3
 17e:	fd ff 3e    	bra       GTU, 0x17a <L91>
 180:	04 00 37    	bra       0x18a <L41>

00000182 <L21>:
 182:	61 28 e1    	cp.w      w5, #0x1
 184:	01 00 32    	bra       Z, 0x188 <L31>
 186:	00 82 eb    	setm.w    w4

00000188 <L31>:
 188:	0b 00 07    	rcall     0x1a0 <L13> <__memcpypd3_std>

0000018a <L41>:
 18a:	11 c3 ba    	tblrdh.b  [w1], w6
 18c:	11 01 ba    	tblrdl.w  [w1], w2
 18e:	06 04 e0    	cp0.b     w6
 190:	03 00 3a    	bra       NZ, 0x198 <L12>
 192:	02 00 e0    	cp0.w     w2
 194:	e5 ff 3a    	bra       NZ, 0x160 <L11>
 196:	00 00 06    	return    

00000198 <L12>:
 198:	f6 07 b2    	and.w     #0x7f, w6
 19a:	96 01 88    	mov.w     w6, 0x32
 19c:	82 00 78    	mov.w     w2, w1
 19e:	f5 ff 37    	bra       0x18a <L41>

000001a0 <L13>:
 1a0:	31 59 ba    	tblrdl.b  [w1++], [w2++]
 1a2:	83 01 e9    	dec.w     w3, w3
 1a4:	0c 00 32    	bra       Z, 0x1be <L22>
 1a6:	21 59 ba    	tblrdl.b  [w1--], [w2++]
 1a8:	83 01 e9    	dec.w     w3, w3
 1aa:	08 00 32    	bra       Z, 0x1bc <L42>
 1ac:	04 00 e0    	cp0.w     w4
 1ae:	03 00 3a    	bra       NZ, 0x1b6 <L14>

000001b0 <L32>:
 1b0:	e2 80 40    	add.w     w1, #0x2, w1
 1b2:	32 a0 b4    	addc.w    0x32
 1b4:	f5 ff 37    	bra       0x1a0 <L13> <__memcpypd3_std>

000001b6 <L14>:
 1b6:	11 d9 ba    	tblrdh.b  [w1], [w2++]
 1b8:	83 01 e9    	dec.w     w3, w3
 1ba:	fa ff 3a    	bra       NZ, 0x1b0 <L32>

000001bc <L42>:
 1bc:	81 00 e8    	inc.w     w1, w1

000001be <L22>:
 1be:	e1 80 40    	add.w     w1, #0x1, w1
 1c0:	32 a0 b4    	addc.w    0x32
 1c2:	00 00 06    	return    

000001c4 <__DefaultInterrupt>:
 1c4:	00 40 da    	.pword 0xda4000
 1c6:	00 00 fe    	reset     

000001c8 <___udivsi3>:
 1c8:	60 22 b8    	mul.uu    w4, #0x0, w4
 1ca:	06 02 20    	mov.w     #0x20, w6

000001cc <nextbit>:
 1cc:	00 00 d0    	sl.w      w0, w0
 1ce:	81 80 d2    	rlc.w     w1, w1
 1d0:	04 82 d2    	rlc.w     w4, w4
 1d2:	85 82 d2    	rlc.w     w5, w5
 1d4:	00 00 a0    	bset.w    w0, #0x0
 1d6:	02 02 52    	sub.w     w4, w2, w4
 1d8:	83 82 5a    	subb.w    w5, w3, w5
 1da:	03 00 31    	bra       C, 0x1e2 <iterate>
 1dc:	02 02 42    	add.w     w4, w2, w4
 1de:	83 82 4a    	addc.w    w5, w3, w5
 1e0:	00 00 a1    	bclr.w    w0, #0x0

000001e2 <iterate>:
 1e2:	06 03 e9    	dec.w     w6, w6
 1e4:	f3 ff 3a    	bra       NZ, 0x1cc <nextbit>
 1e6:	00 00 06    	return    

000001e8 <___muldf3>:
 1e8:	28 00 fa    	lnk       #0x28
 1ea:	88 9f be    	mov.d     w8, [w15++]
 1ec:	8a 9f be    	mov.d     w10, [w15++]
 1ee:	8c 9f be    	mov.d     w12, [w15++]
 1f0:	03 86 6b    	xor.w     w7, w3, w12
 1f2:	07 02 07    	rcall     0x602 <__dunpack2> <.libm>
 1f4:	00 28 a3    	btst.z    w0, #0x2
 1f6:	64 00 3a    	bra       NZ, 0x2c0 <aisinfinite>
 1f8:	01 28 a3    	btst.z    w1, #0x2
 1fa:	67 00 3a    	bra       NZ, 0x2ca <bisinfinite>
 1fc:	00 08 a3    	btst.z    w0, #0x0
 1fe:	62 00 3a    	bra       NZ, 0x2c4 <returna> <returnab>
 200:	01 08 a3    	btst.z    w1, #0x0
 202:	65 00 3a    	bra       NZ, 0x2ce <returnb>
 204:	1e 00 90    	mov.w     [w14+2], w0
 206:	be 08 90    	mov.w     [w14+22], w1
 208:	81 06 40    	add.w     w0, w1, w13
 20a:	ed 3f b1    	sub.w     #0x3fe, w13
 20c:	f4 80 57    	sub.w     w15, #0x14, w1
 20e:	ee 01 90    	mov.w     [w14+12], w3
 210:	11 1a b8    	mul.uu    w3, [w1], w4
 212:	8e 09 90    	mov.w     [w14+16], w3
 214:	31 1b b8    	mul.uu    w3, [w1++], w6
 216:	9e 09 90    	mov.w     [w14+18], w3
 218:	31 1c b8    	mul.uu    w3, [w1++], w8
 21a:	51 1d b8    	mul.uu    w3, [++w1], w10
 21c:	f4 85 57    	sub.w     w15, #0x14, w11
 21e:	46 00 07    	rcall     0x2ac <muladd7>
 220:	fe 01 90    	mov.w     [w14+14], w3
 222:	3a 00 07    	rcall     0x298 <muladd5>
 224:	8b 85 e8    	inc2.w    w11, w11
 226:	3e 00 07    	rcall     0x2a4 <muladd6>
 228:	8e 09 90    	mov.w     [w14+16], w3
 22a:	40 00 07    	rcall     0x2ac <muladd7>
 22c:	ee 01 90    	mov.w     [w14+12], w3
 22e:	34 00 07    	rcall     0x298 <muladd5>
 230:	8b 85 e8    	inc2.w    w11, w11
 232:	38 00 07    	rcall     0x2a4 <muladd6>
 234:	8e 09 90    	mov.w     [w14+16], w3
 236:	40 00 07    	rcall     0x2b8 <muladd8>
 238:	9e 09 90    	mov.w     [w14+18], w3
 23a:	1b 18 b8    	mul.uu    w3, [w11], w0
 23c:	89 04 40    	add.w     w0, w9, w9
 23e:	0a 85 48    	addc.w    w1, w10, w10
 240:	fe 01 90    	mov.w     [w14+14], w3
 242:	34 00 07    	rcall     0x2ac <muladd7>
 244:	8b 85 e8    	inc2.w    w11, w11
 246:	38 00 07    	rcall     0x2b8 <muladd8>
 248:	ee 01 90    	mov.w     [w14+12], w3
 24a:	30 00 07    	rcall     0x2ac <muladd7>
 24c:	8e 09 90    	mov.w     [w14+16], w3
 24e:	1b 18 b8    	mul.uu    w3, [w11], w0
 250:	89 04 40    	add.w     w0, w9, w9
 252:	0a 85 48    	addc.w    w1, w10, w10
 254:	0a 98 a3    	btst.z    w10, #0x9
 256:	08 00 3a    	bra       NZ, 0x268 <formsticky>
 258:	04 02 42    	add.w     w4, w4, w4
 25a:	85 82 4a    	addc.w    w5, w5, w5
 25c:	06 03 4b    	addc.w    w6, w6, w6
 25e:	87 83 4b    	addc.w    w7, w7, w7
 260:	08 04 4c    	addc.w    w8, w8, w8
 262:	89 84 4c    	addc.w    w9, w9, w9
 264:	0a 05 4d    	addc.w    w10, w10, w10
 266:	8d 06 e9    	dec.w     w13, w13

00000268 <formsticky>:
 268:	84 82 72    	ior.w     w5, w4, w5
 26a:	85 02 73    	ior.w     w6, w5, w5
 26c:	4c 3a dd    	sl.w      w7, #0xc, w4
 26e:	85 02 72    	ior.w     w4, w5, w5
 270:	01 00 32    	bra       Z, 0x274 <formRandSig>
 272:	15 00 20    	mov.w     #0x1, w5

00000274 <formRandSig>:
 274:	44 3a de    	lsr.w     w7, #0x4, w4
 276:	14 00 b2    	and.w     #0x1, w4
 278:	45 38 de    	lsr.w     w7, #0x5, w0
 27a:	cb 45 dd    	sl.w      w8, #0xb, w11
 27c:	0b 00 70    	ior.w     w0, w11, w0
 27e:	c5 40 de    	lsr.w     w8, #0x5, w1
 280:	cb 4d dd    	sl.w      w9, #0xb, w11
 282:	8b 80 70    	ior.w     w1, w11, w1
 284:	45 49 de    	lsr.w     w9, #0x5, w2
 286:	cb 55 dd    	sl.w      w10, #0xb, w11
 288:	0b 01 71    	ior.w     w2, w11, w2
 28a:	c5 51 de    	lsr.w     w10, #0x5, w3
 28c:	0d 03 78    	mov.w     w13, w6
 28e:	d2 01 07    	rcall     0x634 <__dpack> <.libm>

00000290 <signoff>:
 290:	03 f0 a1    	bclr.w    w3, #0xf
 292:	0c f0 a7    	btsc.w    w12, #0xf
 294:	03 f0 a0    	bset.w    w3, #0xf
 296:	c9 01 37    	bra       0x62a <__dunpack2exit>

00000298 <muladd5>:
 298:	1b 18 b8    	mul.uu    w3, [w11], w0
 29a:	85 02 40    	add.w     w0, w5, w5
 29c:	06 83 48    	addc.w    w1, w6, w6
 29e:	e0 83 4b    	addc.w    w7, #0x0, w7

000002a0 <carry8>:
 2a0:	60 04 4c    	addc.w    w8, #0x0, w8
 2a2:	07 00 37    	bra       0x2b2 <carry9>

000002a4 <muladd6>:
 2a4:	1b 18 b8    	mul.uu    w3, [w11], w0
 2a6:	06 03 40    	add.w     w0, w6, w6
 2a8:	87 83 48    	addc.w    w1, w7, w7
 2aa:	fa ff 37    	bra       0x2a0 <carry8>

000002ac <muladd7>:
 2ac:	1b 18 b8    	mul.uu    w3, [w11], w0
 2ae:	87 03 40    	add.w     w0, w7, w7
 2b0:	08 84 48    	addc.w    w1, w8, w8

000002b2 <carry9>:
 2b2:	e0 84 4c    	addc.w    w9, #0x0, w9

000002b4 <carrya>:
 2b4:	60 05 4d    	addc.w    w10, #0x0, w10
 2b6:	00 00 06    	return    

000002b8 <muladd8>:
 2b8:	1b 18 b8    	mul.uu    w3, [w11], w0
 2ba:	08 04 40    	add.w     w0, w8, w8
 2bc:	89 84 48    	addc.w    w1, w9, w9
 2be:	fa ff 37    	bra       0x2b4 <carrya>

000002c0 <aisinfinite>:
 2c0:	01 08 a3    	btst.z    w1, #0x0
 2c2:	b0 01 3a    	bra       NZ, 0x624 <__dreturnNaN>

000002c4 <returna>:
 2c4:	58 00 be    	mov.d     [++w8], w0
 2c6:	58 01 be    	mov.d     [++w8], w2
 2c8:	e3 ff 37    	bra       0x290 <signoff>

000002ca <bisinfinite>:
 2ca:	00 08 a3    	btst.z    w0, #0x0
 2cc:	ab 01 3a    	bra       NZ, 0x624 <__dreturnNaN>

000002ce <returnb>:
 2ce:	09 04 78    	mov.w     w9, w8
 2d0:	f9 ff 37    	bra       0x2c4 <returna> <returnab>

000002d2 <___eqdf2>:
 2d2:	8f 1f d1    	lsr.w     w15, [w15++]
 2d4:	db 01 07    	rcall     0x68c <__dcompare> <.libm>
 2d6:	8f 87 e9    	dec2.w    w15, w15
 2d8:	00 00 e0    	cp0.w     w0
 2da:	00 00 06    	return    

000002dc <___adddf3>:
 2dc:	28 00 fa    	lnk       #0x28
 2de:	88 9f be    	mov.d     w8, [w15++]
 2e0:	8a 9f be    	mov.d     w10, [w15++]
 2e2:	8c 9f be    	mov.d     w12, [w15++]
 2e4:	07 06 78    	mov.w     w7, w12
 2e6:	87 86 69    	xor.w     w3, w7, w13
 2e8:	0c 00 3b    	bra       NN, 0x302 <gotsign>
 2ea:	03 04 78    	mov.w     w3, w8
 2ec:	87 04 78    	mov.w     w7, w9
 2ee:	08 f0 a1    	bclr.w    w8, #0xf
 2f0:	09 f0 a1    	bclr.w    w9, #0xf
 2f2:	84 0f 50    	sub.w     w0, w4, [w15]
 2f4:	85 8f 58    	subb.w    w1, w5, [w15]
 2f6:	86 0f 59    	subb.w    w2, w6, [w15]
 2f8:	89 0f 5c    	subb.w    w8, w9, [w15]
 2fa:	03 00 33    	bra       N, 0x302 <gotsign>
 2fc:	0c f0 a2    	btg.w     w12, #0xf
 2fe:	01 00 3a    	bra       NZ, 0x302 <gotsign>
 300:	0c f0 a1    	bclr.w    w12, #0xf

00000302 <gotsign>:
 302:	7f 01 07    	rcall     0x602 <__dunpack2> <.libm>
 304:	64 00 e1    	cp.w      w0, #0x4
 306:	5f 00 32    	bra       Z, 0x3c6 <aisinfinite>
 308:	78 01 47    	add.w     w14, #0x18, w2
 30a:	64 08 e1    	cp.w      w1, #0x4
 30c:	61 00 32    	bra       Z, 0x3d0 <returnab>
 30e:	6c 01 47    	add.w     w14, #0xc, w2
 310:	74 85 57    	sub.w     w15, #0x14, w10
 312:	32 00 be    	mov.d     [w2++], w0
 314:	12 01 be    	mov.d     [w2], w2
 316:	3a 04 be    	mov.d     [w10++], w8
 318:	1a 05 be    	mov.d     [w10], w10
 31a:	1e 03 90    	mov.w     [w14+2], w6
 31c:	be 0a 90    	mov.w     [w14+22], w5
 31e:	85 03 53    	sub.w     w6, w5, w7
 320:	06 00 3d    	bra       GE, 0x32e <expcanonical>
 322:	00 04 fd    	exch      w0, w8
 324:	81 04 fd    	exch      w1, w9
 326:	02 05 fd    	exch      w2, w10
 328:	83 05 fd    	exch      w3, w11
 32a:	87 03 ea    	neg.w     w7, w7
 32c:	05 03 78    	mov.w     w5, w6

0000032e <expcanonical>:
 32e:	0d f8 a3    	btst.z    w13, #0xf
 330:	04 00 32    	bra       Z, 0x33a <bcanonical>
 332:	60 04 14    	subr.w    w8, #0x0, w8
 334:	e0 84 1c    	subbr.w   w9, #0x0, w9
 336:	60 05 1d    	subbr.w   w10, #0x0, w10
 338:	e0 85 1d    	subbr.w   w11, #0x0, w11

0000033a <bcanonical>:
 33a:	60 22 b8    	mul.uu    w4, #0x0, w4
 33c:	7d 03 20    	mov.w     #0x37, w13
 33e:	0d 38 e1    	cp.w      w7, w13
 340:	80 06 eb    	clr.w     w13
 342:	0b 00 39    	bra       NC, 0x35a <aligniter>
 344:	44 33 dd    	sl.w      w6, #0x4, w6
 346:	f3 00 b2    	and.w     #0xf, w3
 348:	83 01 73    	ior.w     w6, w3, w3
 34a:	39 00 37    	bra       0x3be <signoff>

0000034c <align>:
 34c:	84 82 72    	ior.w     w5, w4, w5
 34e:	0d 02 78    	mov.w     w13, w4
 350:	e1 06 64    	and.w     w8, #0x1, w13
 352:	8b 85 d1    	asr.w     w11, w11
 354:	0a 85 d3    	rrc.w     w10, w10
 356:	89 84 d3    	rrc.w     w9, w9
 358:	08 84 d3    	rrc.w     w8, w8

0000035a <aligniter>:
 35a:	87 03 e9    	dec.w     w7, w7
 35c:	f7 ff 3b    	bra       NN, 0x34c <align>

0000035e <aligned>:
 35e:	08 00 40    	add.w     w0, w8, w0
 360:	89 80 48    	addc.w    w1, w9, w1
 362:	0a 01 49    	addc.w    w2, w10, w2
 364:	8b 81 49    	addc.w    w3, w11, w3
 366:	04 00 3b    	bra       NN, 0x370 <normalizesum>
 368:	60 00 10    	subr.w    w0, #0x0, w0
 36a:	e0 80 18    	subbr.w   w1, #0x0, w1
 36c:	60 01 19    	subbr.w   w2, #0x0, w2
 36e:	e0 81 19    	subbr.w   w3, #0x0, w3

00000370 <normalizesum>:
 370:	03 58 a3    	btst.z    w3, #0x5
 372:	09 00 32    	bra       Z, 0x386 <checknormal>
 374:	8d 82 72    	ior.w     w5, w13, w5
 376:	84 82 72    	ior.w     w5, w4, w5
 378:	61 02 60    	and.w     w0, #0x1, w4
 37a:	83 01 d1    	lsr.w     w3, w3
 37c:	02 81 d3    	rrc.w     w2, w2
 37e:	81 80 d3    	rrc.w     w1, w1
 380:	00 80 d3    	rrc.w     w0, w0
 382:	06 03 e8    	inc.w     w6, w6
 384:	1b 00 37    	bra       0x3bc <round>

00000386 <checknormal>:
 386:	03 48 a3    	btst.z    w3, #0x4
 388:	17 00 3a    	bra       NZ, 0x3b8 <discardguard>

0000038a <underflow>:
 38a:	06 00 e0    	cp0.w     w6
 38c:	17 00 34    	bra       LE, 0x3bc <round>
 38e:	06 03 e9    	dec.w     w6, w6
 390:	0d 00 a3    	btst.c    w13, #0x0
 392:	00 00 48    	addc.w    w0, w0, w0
 394:	81 80 48    	addc.w    w1, w1, w1
 396:	02 01 49    	addc.w    w2, w2, w2
 398:	83 81 49    	addc.w    w3, w3, w3
 39a:	03 48 a3    	btst.z    w3, #0x4
 39c:	0f 00 3a    	bra       NZ, 0x3bc <round>

0000039e <normalizeloop>:
 39e:	06 00 e0    	cp0.w     w6
 3a0:	09 00 34    	bra       LE, 0x3b4 <normalizeexit>
 3a2:	06 03 e9    	dec.w     w6, w6
 3a4:	00 00 40    	add.w     w0, w0, w0
 3a6:	81 80 48    	addc.w    w1, w1, w1
 3a8:	02 01 49    	addc.w    w2, w2, w2
 3aa:	83 81 49    	addc.w    w3, w3, w3
 3ac:	01 00 3a    	bra       NZ, 0x3b0 <normalizeexpok>
 3ae:	00 03 eb    	clr.w     w6

000003b0 <normalizeexpok>:
 3b0:	03 48 a3    	btst.z    w3, #0x4
 3b2:	f5 ff 32    	bra       Z, 0x39e <normalizeloop>

000003b4 <normalizeexit>:
 3b4:	60 22 b8    	mul.uu    w4, #0x0, w4
 3b6:	02 00 37    	bra       0x3bc <round>

000003b8 <discardguard>:
 3b8:	84 82 72    	ior.w     w5, w4, w5
 3ba:	61 82 66    	and.w     w13, #0x1, w4

000003bc <round>:
 3bc:	3b 01 07    	rcall     0x634 <__dpack> <.libm>

000003be <signoff>:
 3be:	03 f0 a1    	bclr.w    w3, #0xf
 3c0:	0c f0 a7    	btsc.w    w12, #0xf
 3c2:	03 f0 a0    	bset.w    w3, #0xf
 3c4:	32 01 37    	bra       0x62a <__dunpack2exit>

000003c6 <aisinfinite>:
 3c6:	64 01 47    	add.w     w14, #0x4, w2
 3c8:	64 08 e1    	cp.w      w1, #0x4
 3ca:	02 00 3a    	bra       NZ, 0x3d0 <returnab>
 3cc:	0d f8 a3    	btst.z    w13, #0xf
 3ce:	2a 01 3a    	bra       NZ, 0x624 <__dreturnNaN>

000003d0 <returnab>:
 3d0:	32 00 be    	mov.d     [w2++], w0
 3d2:	12 01 be    	mov.d     [w2], w2
 3d4:	2a 01 37    	bra       0x62a <__dunpack2exit>

000003d6 <_floor>:
 3d6:	00 02 eb    	clr.w     w4
 3d8:	82 01 07    	rcall     0x6de <__dchop> <.libm>
 3da:	05 00 32    	bra       Z, 0x3e6 <exit>
 3dc:	07 ff 23    	mov.w     #0x3ff0, w7
 3de:	06 00 20    	mov.w     #0x0, w6
 3e0:	60 22 b8    	mul.uu    w4, #0x0, w4
 3e2:	03 f0 a7    	btsc.w    w3, #0xf
 3e4:	2d 00 07    	rcall     0x440 <___subdf3> <.libm>

000003e6 <exit>:
 3e6:	00 00 06    	return    

000003e8 <___fixdfsi>:
 3e8:	14 00 fa    	lnk       #0x14
 3ea:	88 9f be    	mov.d     w8, [w15++]
 3ec:	8a 9f be    	mov.d     w10, [w15++]
 3ee:	8c 9f be    	mov.d     w12, [w15++]
 3f0:	00 04 be    	mov.d     w0, w8
 3f2:	02 05 be    	mov.d     w2, w10
 3f4:	68 00 47    	add.w     w14, #0x8, w0
 3f6:	0a 90 be    	mov.d     w10, [w0--]
 3f8:	08 90 be    	mov.d     w8, [w0--]
 3fa:	b5 01 07    	rcall     0x766 <__dunpack> <.libm>
 3fc:	00 70 a7    	btsc.w    w0, #0x7
 3fe:	0b f0 a1    	bclr.w    w11, #0xf
 400:	30 43 20    	mov.w     #0x433, w0
 402:	9e 02 90    	mov.w     [w14+2], w5
 404:	80 82 52    	sub.w     w5, w0, w5
 406:	b0 fe 2f    	mov.w     #0xffeb, w0
 408:	00 28 e1    	cp.w      w5, w0
 40a:	11 00 3d    	bra       GE, 0x42e <overflow>
 40c:	b0 fc 2f    	mov.w     #0xffcb, w0
 40e:	00 28 e1    	cp.w      w5, w0
 410:	15 00 34    	bra       LE, 0x43c <underflow>
 412:	1e 09 90    	mov.w     [w14+18], w2
 414:	8e 08 90    	mov.w     [w14+16], w1
 416:	7e 00 90    	mov.w     [w14+14], w0
 418:	05 01 b0    	add.w     #0x10, w5

0000041a <shiftrightloop>:
 41a:	02 01 d1    	lsr.w     w2, w2
 41c:	81 80 d3    	rrc.w     w1, w1
 41e:	00 80 d3    	rrc.w     w0, w0
 420:	85 02 e8    	inc.w     w5, w5
 422:	fb ff 3a    	bra       NZ, 0x41a <shiftrightloop>

00000424 <setsign>:
 424:	0b 00 e0    	cp0.w     w11
 426:	01 01 3b    	bra       NN, 0x62a <__dunpack2exit>
 428:	60 00 10    	subr.w    w0, #0x0, w0
 42a:	e0 80 18    	subbr.w   w1, #0x0, w1
 42c:	fe 00 37    	bra       0x62a <__dunpack2exit>

0000042e <overflow>:
 42e:	f0 ff 2f    	mov.w     #0xffff, w0
 430:	f1 ff 27    	mov.w     #0x7fff, w1
 432:	0b 00 e0    	cp0.w     w11
 434:	fa 00 3b    	bra       NN, 0x62a <__dunpack2exit>
 436:	01 00 28    	mov.w     #0x8000, w1
 438:	00 00 20    	mov.w     #0x0, w0
 43a:	f7 00 37    	bra       0x62a <__dunpack2exit>

0000043c <underflow>:
 43c:	60 00 b8    	mul.uu    w0, #0x0, w0
 43e:	f5 00 37    	bra       0x62a <__dunpack2exit>

00000440 <___subdf3>:
 440:	07 f0 a2    	btg.w     w7, #0xf
 442:	4c ff 37    	bra       0x2dc <___adddf3> <.libm>

00000444 <___floatsidf>:
 444:	4f 89 de    	asr.w     w1, #0xf, w2
 446:	82 01 78    	mov.w     w2, w3
 448:	b5 01 37    	bra       0x7b4 <___floatdidf> <.libm>

0000044a <___floatunsisf>:
 44a:	60 11 b8    	mul.uu    w2, #0x0, w2
 44c:	c3 01 37    	bra       0x7d4 <___floatundisf> <.libm>

0000044e <___extendsfdf2>:
 44e:	81 03 78    	mov.w     w1, w7
 450:	f0 01 07    	rcall     0x832 <__funpack> <.libm> <_FCV_WAHQ>
 452:	00 01 be    	mov.d     w0, w2
 454:	60 00 b8    	mul.uu    w0, #0x0, w0
 456:	04 78 a3    	btst.z    w4, #0x7
 458:	13 00 3a    	bra       NZ, 0x480 <xIsNaN>
 45a:	62 20 e1    	cp.w      w4, #0x2
 45c:	15 00 3e    	bra       GTU, 0x488 <xIsInf>
 45e:	0d 00 39    	bra       NC, 0x47a <signoff>
 460:	83 01 d1    	lsr.w     w3, w3
 462:	02 81 d3    	rrc.w     w2, w2
 464:	81 80 d3    	rrc.w     w1, w1
 466:	83 01 d1    	lsr.w     w3, w3
 468:	02 81 d3    	rrc.w     w2, w2
 46a:	81 80 d3    	rrc.w     w1, w1
 46c:	83 01 d1    	lsr.w     w3, w3
 46e:	02 81 d3    	rrc.w     w2, w2
 470:	81 80 d3    	rrc.w     w1, w1
 472:	05 38 b0    	add.w     #0x380, w5
 474:	c4 2a dd    	sl.w      w5, #0x4, w5
 476:	f3 00 b2    	and.w     #0xf, w3
 478:	83 81 72    	ior.w     w5, w3, w3

0000047a <signoff>:
 47a:	07 f0 a7    	btsc.w    w7, #0xf
 47c:	03 f0 a0    	bset.w    w3, #0xf

0000047e <exit>:
 47e:	00 00 06    	return    

00000480 <xIsNaN>:
 480:	f3 ff 27    	mov.w     #0x7fff, w3
 482:	f2 ff 2f    	mov.w     #0xffff, w2
 484:	61 10 b9    	mul.su    w2, #0x1, w0
 486:	fb ff 37    	bra       0x47e <exit>

00000488 <xIsInf>:
 488:	03 ff 27    	mov.w     #0x7ff0, w3
 48a:	f7 ff 37    	bra       0x47a <signoff>

0000048c <___divdf3>:
 48c:	28 00 fa    	lnk       #0x28
 48e:	88 9f be    	mov.d     w8, [w15++]
 490:	8a 9f be    	mov.d     w10, [w15++]
 492:	8c 9f be    	mov.d     w12, [w15++]
 494:	03 86 6b    	xor.w     w7, w3, w12
 496:	b5 00 07    	rcall     0x602 <__dunpack2> <.libm>
 498:	64 00 e1    	cp.w      w0, #0x4
 49a:	44 00 32    	bra       Z, 0x524 <aisinfinite>
 49c:	64 08 e1    	cp.w      w1, #0x4
 49e:	4a 00 32    	bra       Z, 0x534 <returnZero>
 4a0:	61 00 e1    	cp.w      w0, #0x1
 4a2:	46 00 32    	bra       Z, 0x530 <aiszero>
 4a4:	61 08 e1    	cp.w      w1, #0x1
 4a6:	49 00 32    	bra       Z, 0x53a <returnInf>

000004a8 <finitenonzero>:
 4a8:	ec 06 47    	add.w     w14, #0xc, w13
 4aa:	60 00 b8    	mul.uu    w0, #0x0, w0
 4ac:	3d 02 be    	mov.d     [w13++], w4
 4ae:	3d 03 be    	mov.d     [w13++], w6
 4b0:	f4 86 57    	sub.w     w15, #0x14, w13
 4b2:	60 11 b8    	mul.uu    w2, #0x0, w2
 4b4:	3d 04 be    	mov.d     [w13++], w8
 4b6:	3d 05 be    	mov.d     [w13++], w10
 4b8:	7d 03 20    	mov.w     #0x37, w13
 4ba:	0b 00 37    	bra       0x4d2 <diventry>

000004bc <divnext>:
 4bc:	00 00 a0    	bset.w    w0, #0x0
 4be:	8d 06 e9    	dec.w     w13, w13
 4c0:	13 00 32    	bra       Z, 0x4e8 <divdone>

000004c2 <divloop>:
 4c2:	04 02 42    	add.w     w4, w4, w4
 4c4:	85 82 4a    	addc.w    w5, w5, w5
 4c6:	06 03 4b    	addc.w    w6, w6, w6
 4c8:	87 83 4b    	addc.w    w7, w7, w7
 4ca:	00 00 40    	add.w     w0, w0, w0
 4cc:	81 80 48    	addc.w    w1, w1, w1
 4ce:	02 01 49    	addc.w    w2, w2, w2
 4d0:	83 81 49    	addc.w    w3, w3, w3

000004d2 <diventry>:
 4d2:	08 02 52    	sub.w     w4, w8, w4
 4d4:	89 82 5a    	subb.w    w5, w9, w5
 4d6:	0a 03 5b    	subb.w    w6, w10, w6
 4d8:	8b 83 5b    	subb.w    w7, w11, w7
 4da:	f0 ff 3b    	bra       NN, 0x4bc <divnext>
 4dc:	08 02 42    	add.w     w4, w8, w4
 4de:	89 82 4a    	addc.w    w5, w9, w5
 4e0:	0a 03 4b    	addc.w    w6, w10, w6
 4e2:	8b 83 4b    	addc.w    w7, w11, w7
 4e4:	8d 06 e9    	dec.w     w13, w13
 4e6:	ed ff 3a    	bra       NZ, 0x4c2 <divloop>

000004e8 <divdone>:
 4e8:	84 82 72    	ior.w     w5, w4, w5
 4ea:	86 82 72    	ior.w     w5, w6, w5
 4ec:	f7 07 b2    	and.w     #0x7f, w7
 4ee:	87 82 72    	ior.w     w5, w7, w5
 4f0:	01 00 32    	bra       Z, 0x4f4 <stickyformed>
 4f2:	15 00 20    	mov.w     #0x1, w5

000004f4 <stickyformed>:
 4f4:	1e 04 90    	mov.w     [w14+2], w8
 4f6:	3e 0b 90    	mov.w     [w14+22], w6
 4f8:	06 03 54    	sub.w     w8, w6, w6
 4fa:	e6 3f b0    	add.w     #0x3fe, w6
 4fc:	03 68 a3    	btst.z    w3, #0x6
 4fe:	07 00 32    	bra       Z, 0x50e <guardused>
 500:	00 00 a7    	btsc.w    w0, #0x0
 502:	05 00 a0    	bset.w    w5, #0x0
 504:	83 01 d1    	lsr.w     w3, w3
 506:	02 81 d3    	rrc.w     w2, w2
 508:	81 80 d3    	rrc.w     w1, w1
 50a:	00 80 d3    	rrc.w     w0, w0
 50c:	06 03 e8    	inc.w     w6, w6

0000050e <guardused>:
 50e:	83 01 d1    	lsr.w     w3, w3
 510:	02 81 d3    	rrc.w     w2, w2
 512:	81 80 d3    	rrc.w     w1, w1
 514:	00 80 d3    	rrc.w     w0, w0
 516:	00 02 eb    	clr.w     w4
 518:	04 82 d2    	rlc.w     w4, w4
 51a:	8c 00 07    	rcall     0x634 <__dpack> <.libm>

0000051c <signoff>:
 51c:	03 f0 a1    	bclr.w    w3, #0xf
 51e:	0c f0 a7    	btsc.w    w12, #0xf
 520:	03 f0 a0    	bset.w    w3, #0xf
 522:	83 00 37    	bra       0x62a <__dunpack2exit>

00000524 <aisinfinite>:
 524:	64 02 47    	add.w     w14, #0x4, w4
 526:	64 08 e1    	cp.w      w1, #0x4
 528:	7d 00 32    	bra       Z, 0x624 <__dreturnNaN>
 52a:	34 00 be    	mov.d     [w4++], w0
 52c:	34 01 be    	mov.d     [w4++], w2
 52e:	f6 ff 37    	bra       0x51c <signoff>

00000530 <aiszero>:
 530:	61 08 e1    	cp.w      w1, #0x1
 532:	78 00 32    	bra       Z, 0x624 <__dreturnNaN>

00000534 <returnZero>:
 534:	60 11 b8    	mul.uu    w2, #0x0, w2

00000536 <returnZeroLo>:
 536:	60 00 b8    	mul.uu    w0, #0x0, w0
 538:	f1 ff 37    	bra       0x51c <signoff>

0000053a <returnInf>:
 53a:	03 ff 27    	mov.w     #0x7ff0, w3
 53c:	02 00 20    	mov.w     #0x0, w2
 53e:	fb ff 37    	bra       0x536 <returnZeroLo>

00000540 <_sin>:
 540:	14 00 20    	mov.w     #0x1, w4
 542:	8c 01 37    	bra       0x85c <__sincos> <.libm>

00000544 <_sqrt>:
 544:	14 00 fa    	lnk       #0x14
 546:	88 9f be    	mov.d     w8, [w15++]
 548:	8a 9f be    	mov.d     w10, [w15++]
 54a:	8c 9f be    	mov.d     w12, [w15++]
 54c:	00 04 be    	mov.d     w0, w8
 54e:	02 05 be    	mov.d     w2, w10
 550:	68 00 47    	add.w     w14, #0x8, w0
 552:	0a 90 be    	mov.d     w10, [w0--]
 554:	08 90 be    	mov.d     w8, [w0--]
 556:	07 01 07    	rcall     0x766 <__dunpack> <.libm>
 558:	00 78 a3    	btst.z    w0, #0x7
 55a:	3d 00 3a    	bra       NZ, 0x5d6 <xisNaN>
 55c:	61 00 e1    	cp.w      w0, #0x1
 55e:	3c 00 32    	bra       Z, 0x5d8 <returnx>
 560:	0b f8 a3    	btst.z    w11, #0xf
 562:	3d 00 3a    	bra       NZ, 0x5de <domainerr>
 564:	64 00 e1    	cp.w      w0, #0x4
 566:	38 00 32    	bra       Z, 0x5d8 <returnx>
 568:	6c 03 47    	add.w     w14, #0xc, w6
 56a:	1e 00 90    	mov.w     [w14+2], w0
 56c:	f0 3f b1    	sub.w     #0x3ff, w0
 56e:	36 02 be    	mov.d     [w6++], w4
 570:	16 03 be    	mov.d     [w6], w6
 572:	00 08 a3    	btst.z    w0, #0x0
 574:	04 00 32    	bra       Z, 0x57e <ncanonical>
 576:	04 02 42    	add.w     w4, w4, w4
 578:	85 82 4a    	addc.w    w5, w5, w5
 57a:	06 03 4b    	addc.w    w6, w6, w6
 57c:	87 83 4b    	addc.w    w7, w7, w7

0000057e <ncanonical>:
 57e:	10 07 98    	mov.w     w0, [w14+2]
 580:	8e 1f 78    	mov.w     w14, [w15++]
 582:	60 00 b8    	mul.uu    w0, #0x0, w0
 584:	60 11 b8    	mul.uu    w2, #0x0, w2
 586:	5c 00 20    	mov.w     #0x5, w12
 588:	6d 01 20    	mov.w     #0x16, w13
 58a:	6e 00 20    	mov.w     #0x6, w14
 58c:	02 00 37    	bra       0x592 <qloop>

0000058e <qnext16>:
 58e:	8d 86 e9    	dec2.w    w13, w13
 590:	fc 00 20    	mov.w     #0xf, w12

00000592 <qloop>:
 592:	04 02 42    	add.w     w4, w4, w4
 594:	85 82 4a    	addc.w    w5, w5, w5
 596:	06 03 4b    	addc.w    w6, w6, w6
 598:	87 83 4b    	addc.w    w7, w7, w7
 59a:	00 04 40    	add.w     w0, w0, w8
 59c:	81 84 48    	addc.w    w1, w1, w9
 59e:	02 05 49    	addc.w    w2, w2, w10
 5a0:	83 85 49    	addc.w    w3, w3, w11
 5a2:	60 60 e1    	cp.w      w12, #0x0
 5a4:	1d 60 ad    	bsw.c     [w13], w12
 5a6:	08 04 52    	sub.w     w4, w8, w8
 5a8:	89 84 5a    	subb.w    w5, w9, w9
 5aa:	0a 05 5b    	subb.w    w6, w10, w10
 5ac:	8b 85 5b    	subb.w    w7, w11, w11
 5ae:	03 00 39    	bra       NC, 0x5b6 <qnext>
 5b0:	1e 60 ad    	bsw.c     [w14], w12
 5b2:	08 02 be    	mov.d     w8, w4
 5b4:	0a 03 be    	mov.d     w10, w6

000005b6 <qnext>:
 5b6:	0c 06 e9    	dec.w     w12, w12
 5b8:	ec ff 3b    	bra       NN, 0x592 <qloop>
 5ba:	0e 87 e9    	dec2.w    w14, w14
 5bc:	e8 ff 3b    	bra       NN, 0x58e <qnext16>
 5be:	4f 07 78    	mov.w     [--w15], w14
 5c0:	61 02 60    	and.w     w0, #0x1, w4
 5c2:	84 02 78    	mov.w     w4, w5
 5c4:	83 01 d1    	lsr.w     w3, w3
 5c6:	02 81 d3    	rrc.w     w2, w2
 5c8:	81 80 d3    	rrc.w     w1, w1
 5ca:	00 80 d3    	rrc.w     w0, w0
 5cc:	1e 03 90    	mov.w     [w14+2], w6
 5ce:	41 b3 de    	asr.w     w6, #0x1, w6
 5d0:	f6 3f b0    	add.w     #0x3ff, w6
 5d2:	30 00 07    	rcall     0x634 <__dpack> <.libm>
 5d4:	2a 00 37    	bra       0x62a <__dunpack2exit>

000005d6 <xisNaN>:
 5d6:	0b 30 a0    	bset.w    w11, #0x3

000005d8 <returnx>:
 5d8:	08 00 be    	mov.d     w8, w0
 5da:	0a 01 be    	mov.d     w10, w2
 5dc:	26 00 37    	bra       0x62a <__dunpack2exit>

000005de <domainerr>:
 5de:	12 02 20    	mov.w     #0x21, w2
 5e0:	b2 74 88    	mov.w     w2, 0xe96
 5e2:	20 00 37    	bra       0x624 <__dreturnNaN>

000005e4 <___divsi3>:
 5e4:	83 9f 68    	xor.w     w1, w3, [w15++]
 5e6:	01 00 e0    	cp0.w     w1
 5e8:	02 00 3d    	bra       GE, 0x5ee <divtestb>
 5ea:	60 00 10    	subr.w    w0, #0x0, w0
 5ec:	e0 80 18    	subbr.w   w1, #0x0, w1

000005ee <divtestb>:
 5ee:	03 00 e0    	cp0.w     w3
 5f0:	02 00 3d    	bra       GE, 0x5f6 <calcquot>
 5f2:	60 01 11    	subr.w    w2, #0x0, w2
 5f4:	e0 81 19    	subbr.w   w3, #0x0, w3

000005f6 <calcquot>:
 5f6:	e8 fd 07    	rcall     0x1c8 <___udivsi3> <.libm>
 5f8:	4f 00 e0    	cp0.w     [--w15]
 5fa:	02 00 3b    	bra       NN, 0x600 <returnq>
 5fc:	60 00 10    	subr.w    w0, #0x0, w0
 5fe:	e0 80 18    	subbr.w   w1, #0x0, w1

00000600 <returnq>:
 600:	00 00 06    	return    

00000602 <__dunpack2>:
 602:	68 04 47    	add.w     w14, #0x8, w8
 604:	02 94 be    	mov.d     w2, [w8--]
 606:	00 94 be    	mov.d     w0, [w8--]
 608:	fc 04 47    	add.w     w14, #0x1c, w9
 60a:	86 94 be    	mov.d     w6, [w9--]
 60c:	84 94 be    	mov.d     w4, [w9--]
 60e:	09 00 78    	mov.w     w9, w0
 610:	aa 00 07    	rcall     0x766 <__dunpack> <.libm>
 612:	08 00 78    	mov.w     w8, w0
 614:	a8 00 07    	rcall     0x766 <__dunpack> <.libm>
 616:	99 00 78    	mov.w     [w9], w1
 618:	81 4f 70    	ior.b     w0, w1, [w15]
 61a:	0b 00 3b    	bra       NN, 0x632 <exit>

0000061c <aorbIsNaN>:
 61c:	08 00 be    	mov.d     w8, w0
 61e:	cb 01 07    	rcall     0x9b6 <__dPropagateNaN> <.libm>
 620:	4f 00 b1    	sub.w     #0x4, w15
 622:	03 00 37    	bra       0x62a <__dunpack2exit>

00000624 <__dreturnNaN>:
 624:	f3 ff 27    	mov.w     #0x7fff, w3
 626:	f2 ff 2f    	mov.w     #0xffff, w2
 628:	61 10 b9    	mul.su    w2, #0x1, w0

0000062a <__dunpack2exit>:
 62a:	4f 06 be    	mov.d     [--w15], w12
 62c:	4f 05 be    	mov.d     [--w15], w10
 62e:	4f 04 be    	mov.d     [--w15], w8
 630:	00 80 fa    	ulnk      

00000632 <exit>:
 632:	00 00 06    	return    

00000634 <__dpack>:
 634:	18 00 20    	mov.w     #0x1, w8
 636:	57 00 20    	mov.w     #0x5, w7
 638:	08 04 53    	sub.w     w6, w8, w8
 63a:	0d 00 3d    	bra       GE, 0x656 <notsubnormal>
 63c:	06 00 20    	mov.w     #0x0, w6
 63e:	97 fc 2f    	mov.w     #0xffc9, w7
 640:	07 40 e1    	cp.w      w8, w7
 642:	1e 00 34    	bra       LE, 0x680 <zerosig>

00000644 <subnormal>:
 644:	84 82 72    	ior.w     w5, w4, w5
 646:	61 02 60    	and.w     w0, #0x1, w4
 648:	83 01 d1    	lsr.w     w3, w3
 64a:	02 81 d3    	rrc.w     w2, w2
 64c:	81 80 d3    	rrc.w     w1, w1
 64e:	00 80 d3    	rrc.w     w0, w0
 650:	08 04 e8    	inc.w     w8, w8
 652:	f8 ff 3a    	bra       NZ, 0x644 <subnormal>
 654:	47 00 20    	mov.w     #0x4, w7

00000656 <notsubnormal>:
 656:	61 04 60    	and.w     w0, #0x1, w8
 658:	05 04 74    	ior.w     w8, w5, w8
 65a:	04 04 64    	and.w     w8, w4, w8
 65c:	0d 00 32    	bra       Z, 0x678 <packupandgo>
 65e:	61 00 40    	add.w     w0, #0x1, w0
 660:	e0 80 48    	addc.w    w1, #0x0, w1
 662:	60 01 49    	addc.w    w2, #0x0, w2
 664:	e0 81 49    	addc.w    w3, #0x0, w3
 666:	03 b8 a5    	btst.z    w3, w7
 668:	07 00 32    	bra       Z, 0x678 <packupandgo>
 66a:	06 03 e8    	inc.w     w6, w6
 66c:	65 38 e1    	cp.w      w7, #0x5
 66e:	04 00 3a    	bra       NZ, 0x678 <packupandgo>
 670:	83 01 d1    	lsr.w     w3, w3
 672:	02 81 d3    	rrc.w     w2, w2
 674:	81 80 d3    	rrc.w     w1, w1
 676:	00 80 d3    	rrc.w     w0, w0

00000678 <packupandgo>:
 678:	f8 7f 20    	mov.w     #0x7ff, w8
 67a:	08 30 e1    	cp.w      w6, w8
 67c:	03 00 35    	bra       LT, 0x684 <nooverflow>
 67e:	08 03 78    	mov.w     w8, w6

00000680 <zerosig>:
 680:	60 00 b8    	mul.uu    w0, #0x0, w0
 682:	60 11 b8    	mul.uu    w2, #0x0, w2

00000684 <nooverflow>:
 684:	44 33 dd    	sl.w      w6, #0x4, w6
 686:	f3 00 b2    	and.w     #0xf, w3
 688:	83 01 73    	ior.w     w6, w3, w3
 68a:	00 00 06    	return    

0000068c <__dcompare>:
 68c:	88 9f be    	mov.d     w8, [w15++]
 68e:	8a 9f be    	mov.d     w10, [w15++]
 690:	8c 9f be    	mov.d     w12, [w15++]
 692:	04 04 be    	mov.d     w4, w8
 694:	06 05 be    	mov.d     w6, w10
 696:	80 9f be    	mov.d     w0, [w15++]
 698:	82 9f be    	mov.d     w2, [w15++]
 69a:	9b 01 07    	rcall     0x9d2 <__dtype> <.libm>
 69c:	04 06 78    	mov.w     w4, w12
 69e:	08 00 be    	mov.d     w8, w0
 6a0:	0a 01 be    	mov.d     w10, w2
 6a2:	97 01 07    	rcall     0x9d2 <__dtype> <.libm>
 6a4:	84 06 78    	mov.w     w4, w13
 6a6:	4f 03 be    	mov.d     [--w15], w6
 6a8:	4f 02 be    	mov.d     [--w15], w4
 6aa:	8d 4f 76    	ior.b     w12, w13, [w15]
 6ac:	7f b0 97    	mov.w     [w15-18], w0
 6ae:	13 00 33    	bra       N, 0x6d6 <exit>
 6b0:	f0 ff 2f    	mov.w     #0xffff, w0
 6b2:	8b 8f 6b    	xor.w     w7, w11, [w15]
 6b4:	06 00 3b    	bra       NN, 0x6c2 <comparemag>
 6b6:	0d 06 66    	and.w     w12, w13, w12
 6b8:	0c 00 a7    	btsc.w    w12, #0x0
 6ba:	0a 00 37    	bra       0x6d0 <returnEqual>
 6bc:	07 f0 a6    	btss.w    w7, #0xf
 6be:	10 00 20    	mov.w     #0x1, w0
 6c0:	0a 00 37    	bra       0x6d6 <exit>

000006c2 <comparemag>:
 6c2:	88 0f 52    	sub.w     w4, w8, [w15]
 6c4:	89 8f 5a    	subb.w    w5, w9, [w15]
 6c6:	8a 0f 5b    	subb.w    w6, w10, [w15]
 6c8:	8b 8f 5b    	subb.w    w7, w11, [w15]
 6ca:	03 00 39    	bra       NC, 0x6d2 <adjust>
 6cc:	10 00 20    	mov.w     #0x1, w0
 6ce:	01 00 3e    	bra       GTU, 0x6d2 <adjust>

000006d0 <returnEqual>:
 6d0:	00 00 20    	mov.w     #0x0, w0

000006d2 <adjust>:
 6d2:	07 f0 a7    	btsc.w    w7, #0xf
 6d4:	00 00 ea    	neg.w     w0, w0

000006d6 <exit>:
 6d6:	4f 06 be    	mov.d     [--w15], w12
 6d8:	4f 05 be    	mov.d     [--w15], w10
 6da:	4f 04 be    	mov.d     [--w15], w8
 6dc:	00 00 06    	return    

000006de <__dchop>:
 6de:	14 00 fa    	lnk       #0x14
 6e0:	88 9f be    	mov.d     w8, [w15++]
 6e2:	8a 9f be    	mov.d     w10, [w15++]
 6e4:	8c 9f be    	mov.d     w12, [w15++]
 6e6:	04 06 78    	mov.w     w4, w12
 6e8:	e8 02 47    	add.w     w14, #0x8, w5
 6ea:	82 92 be    	mov.d     w2, [w5--]
 6ec:	80 92 be    	mov.d     w0, [w5--]
 6ee:	05 00 78    	mov.w     w5, w0
 6f0:	3a 00 07    	rcall     0x766 <__dunpack> <.libm>
 6f2:	62 00 e1    	cp.w      w0, #0x2
 6f4:	33 00 3a    	bra       NZ, 0x75c <returnx>
 6f6:	60 00 b8    	mul.uu    w0, #0x0, w0
 6f8:	60 11 b8    	mul.uu    w2, #0x0, w2
 6fa:	1e 03 90    	mov.w     [w14+2], w6
 6fc:	0c 03 53    	sub.w     w6, w12, w6
 6fe:	f6 3f b1    	sub.w     #0x3ff, w6
 700:	22 00 35    	bra       LT, 0x746 <signit>
 702:	4b 03 20    	mov.w     #0x34, w11
 704:	0b 30 e1    	cp.w      w6, w11
 706:	2a 00 3d    	bra       GE, 0x75c <returnx>
 708:	fb 01 20    	mov.w     #0x1f, w11
 70a:	fa ff 2f    	mov.w     #0xffff, w10
 70c:	61 54 b9    	mul.su    w10, #0x1, w8
 70e:	6c 01 47    	add.w     w14, #0xc, w2

00000710 <shiftloop>:
 710:	8b 05 d1    	lsr.w     w11, w11
 712:	0a 85 d3    	rrc.w     w10, w10
 714:	89 84 d3    	rrc.w     w9, w9
 716:	08 84 d3    	rrc.w     w8, w8
 718:	06 03 e9    	dec.w     w6, w6
 71a:	fa ff 3b    	bra       NN, 0x710 <shiftloop>
 71c:	32 00 be    	mov.d     [w2++], w0
 71e:	12 01 be    	mov.d     [w2], w2
 720:	00 02 64    	and.w     w8, w0, w4
 722:	81 82 64    	and.w     w9, w1, w5
 724:	02 03 65    	and.w     w10, w2, w6
 726:	83 83 65    	and.w     w11, w3, w7
 728:	05 02 72    	ior.w     w4, w5, w4
 72a:	06 02 72    	ior.w     w4, w6, w4
 72c:	07 02 72    	ior.w     w4, w7, w4
 72e:	16 00 32    	bra       Z, 0x75c <returnx>
 730:	08 84 ea    	com.w     w8, w8
 732:	89 84 ea    	com.w     w9, w9
 734:	0a 85 ea    	com.w     w10, w10
 736:	8b 85 ea    	com.w     w11, w11
 738:	00 00 64    	and.w     w8, w0, w0
 73a:	81 80 64    	and.w     w9, w1, w1
 73c:	02 01 65    	and.w     w10, w2, w2
 73e:	83 81 65    	and.w     w11, w3, w3
 740:	60 22 b8    	mul.uu    w4, #0x0, w4
 742:	1e 03 90    	mov.w     [w14+2], w6
 744:	77 ff 07    	rcall     0x634 <__dpack> <.libm>

00000746 <signit>:
 746:	de 03 90    	mov.w     [w14+10], w7
 748:	07 f0 a7    	btsc.w    w7, #0xf
 74a:	03 f0 a0    	bset.w    w3, #0xf
 74c:	00 82 eb    	setm.w    w4

0000074e <exit>:
 74e:	04 00 e0    	cp0.w     w4
 750:	8e 02 90    	mov.w     [w14+0], w5
 752:	4f 06 be    	mov.d     [--w15], w12
 754:	4f 05 be    	mov.d     [--w15], w10
 756:	4f 04 be    	mov.d     [--w15], w8
 758:	00 80 fa    	ulnk      
 75a:	00 00 06    	return    

0000075c <returnx>:
 75c:	64 01 47    	add.w     w14, #0x4, w2
 75e:	04 00 20    	mov.w     #0x0, w4
 760:	32 00 be    	mov.d     [w2++], w0
 762:	12 01 be    	mov.d     [w2], w2
 764:	f4 ff 37    	bra       0x74e <exit>

00000766 <__dunpack>:
 766:	80 00 78    	mov.w     w0, w1
 768:	50 02 be    	mov.d     [++w0], w4
 76a:	50 03 be    	mov.d     [++w0], w6
 76c:	44 39 de    	lsr.w     w7, #0x4, w2
 76e:	f7 00 b2    	and.w     #0xf, w7
 770:	f3 7f 20    	mov.w     #0x7ff, w3
 772:	03 01 61    	and.w     w2, w3, w2
 774:	09 00 32    	bra       Z, 0x788 <zeroorsub>
 776:	02 18 e1    	cp.w      w3, w2
 778:	16 00 3a    	bra       NZ, 0x7a6 <finitereturn>
 77a:	85 01 72    	ior.w     w4, w5, w3
 77c:	83 01 73    	ior.w     w6, w3, w3
 77e:	83 81 73    	ior.w     w7, w3, w3
 780:	00 08 20    	mov.w     #0x80, w0
 782:	15 00 3a    	bra       NZ, 0x7ae <exit>
 784:	40 00 20    	mov.w     #0x4, w0
 786:	13 00 37    	bra       0x7ae <exit>

00000788 <zeroorsub>:
 788:	85 01 72    	ior.w     w4, w5, w3
 78a:	83 01 73    	ior.w     w6, w3, w3
 78c:	83 81 73    	ior.w     w7, w3, w3
 78e:	05 00 3a    	bra       NZ, 0x79a <subnormal>
 790:	04 a8 be    	mov.d     w4, [++w0]
 792:	06 a8 be    	mov.d     w6, [++w0]
 794:	10 00 20    	mov.w     #0x1, w0
 796:	0b 00 37    	bra       0x7ae <exit>

00000798 <normalize>:
 798:	02 01 e9    	dec.w     w2, w2

0000079a <subnormal>:
 79a:	04 02 42    	add.w     w4, w4, w4
 79c:	85 82 4a    	addc.w    w5, w5, w5
 79e:	06 03 4b    	addc.w    w6, w6, w6
 7a0:	87 83 4b    	addc.w    w7, w7, w7
 7a2:	07 48 a3    	btst.z    w7, #0x4
 7a4:	f9 ff 32    	bra       Z, 0x798 <normalize>

000007a6 <finitereturn>:
 7a6:	07 40 a0    	bset.w    w7, #0x4
 7a8:	04 a8 be    	mov.d     w4, [++w0]
 7aa:	06 a8 be    	mov.d     w6, [++w0]
 7ac:	20 00 20    	mov.w     #0x2, w0

000007ae <exit>:
 7ae:	80 00 98    	mov.w     w0, [w1+0]
 7b0:	92 00 98    	mov.w     w2, [w1+2]
 7b2:	00 00 06    	return    

000007b4 <___floatdidf>:
 7b4:	88 1f 78    	mov.w     w8, [w15++]
 7b6:	03 04 78    	mov.w     w3, w8
 7b8:	03 00 e0    	cp0.w     w3
 7ba:	07 00 3d    	bra       GE, 0x7ca <notspecial>

000007bc <negative>:
 7bc:	60 00 10    	subr.w    w0, #0x0, w0
 7be:	e0 80 18    	subbr.w   w1, #0x0, w1
 7c0:	60 01 19    	subbr.w   w2, #0x0, w2
 7c2:	e0 81 19    	subbr.w   w3, #0x0, w3
 7c4:	02 00 3b    	bra       NN, 0x7ca <notspecial>
 7c6:	01 f0 2d    	mov.w     #0xdf00, w1
 7c8:	03 00 37    	bra       0x7d0 <return0>

000007ca <notspecial>:
 7ca:	15 01 07    	rcall     0x9f6 <___floatundidf> <.libm>
 7cc:	08 f0 a7    	btsc.w    w8, #0xf
 7ce:	03 f0 a0    	bset.w    w3, #0xf

000007d0 <return0>:
 7d0:	4f 04 78    	mov.w     [--w15], w8
 7d2:	00 00 06    	return    

000007d4 <___floatundisf>:
 7d4:	88 9f be    	mov.d     w8, [w15++]
 7d6:	8a 9f be    	mov.d     w10, [w15++]
 7d8:	00 82 70    	ior.w     w1, w0, w4
 7da:	04 02 71    	ior.w     w2, w4, w4
 7dc:	04 82 71    	ior.w     w3, w4, w4
 7de:	26 00 32    	bra       Z, 0x82c <return0> <_FCV_FXBANKSWITCHSTATE>
 7e0:	00 04 be    	mov.d     w0, w8
 7e2:	02 00 be    	mov.d     w2, w0
 7e4:	60 11 b8    	mul.uu    w2, #0x0, w2
 7e6:	6b 09 20    	mov.w     #0x96, w11
 7e8:	95 02 20    	mov.w     #0x29, w5
 7ea:	01 82 cf    	ff1l      w1, w4
 7ec:	0a 00 39    	bra       NC, 0x802 <fixshift> <_FCV_WAHFC>
 7ee:	05 41 b1    	sub.b     #0x10, w5
 7f0:	00 82 cf    	ff1l      w0, w4
 7f2:	07 00 39    	bra       NC, 0x802 <fixshift> <_FCV_WAHFC>
 7f4:	05 41 b1    	sub.b     #0x10, w5
 7f6:	09 82 cf    	ff1l      w9, w4
 7f8:	04 00 39    	bra       NC, 0x802 <fixshift> <_FCV_WAHFC>
 7fa:	05 41 b1    	sub.b     #0x10, w5
 7fc:	08 82 cf    	ff1l      w8, w4
 7fe:	01 00 39    	bra       NC, 0x802 <fixshift> <_FCV_WAHFC>
 800:	05 41 b1    	sub.b     #0x10, w5

00000802 <fixshift>:
 802:	05 42 52    	sub.b     w4, w5, w4
 804:	12 00 32    	bra       Z, 0x82a <round> <_FCV_LUTCURRENT>
 806:	0a 00 3b    	bra       NN, 0x81c <shiftleft> <_FCV_VIBRATOLUTTARGET>

00000808 <shiftright>:
 808:	82 81 71    	ior.w     w3, w2, w3
 80a:	61 01 64    	and.w     w8, #0x1, w2
 80c:	81 00 d1    	lsr.w     w1, w1
 80e:	00 80 d3    	rrc.w     w0, w0
 810:	89 84 d3    	rrc.w     w9, w9
 812:	08 84 d3    	rrc.w     w8, w8
 814:	8b 05 e8    	inc.w     w11, w11
 816:	04 42 e8    	inc.b     w4, w4
 818:	f7 ff 3a    	bra       NZ, 0x808 <shiftright>
 81a:	07 00 37    	bra       0x82a <round> <_FCV_LUTCURRENT>

0000081c <shiftleft>:
 81c:	08 04 44    	add.w     w8, w8, w8
 81e:	89 84 4c    	addc.w    w9, w9, w9
 820:	00 00 48    	addc.w    w0, w0, w0
 822:	81 80 48    	addc.w    w1, w1, w1
 824:	8b 05 e9    	dec.w     w11, w11
 826:	04 42 e9    	dec.b     w4, w4
 828:	f9 ff 3a    	bra       NZ, 0x81c <shiftleft> <_FCV_VIBRATOLUTTARGET>

0000082a <round>:
 82a:	10 01 07    	rcall     0xa4c <__fpack> <.libm>

0000082c <return0>:
 82c:	4f 05 be    	mov.d     [--w15], w10
 82e:	4f 04 be    	mov.d     [--w15], w8
 830:	00 00 06    	return    

00000832 <__funpack>:
 832:	c7 0a de    	lsr.w     w1, #0x7, w5
 834:	f1 07 b2    	and.w     #0x7f, w1
 836:	f5 0f b2    	and.w     #0xff, w5
 838:	08 00 32    	bra       Z, 0x84a <zeroorsub> <_FCV_FLANGEDSIGNAL>
 83a:	e1 cf 42    	add.b     w5, #0x1, [w15]
 83c:	02 00 32    	bra       Z, 0x842 <nanorinf> <_FCV_SIGNEDAUDIO>

0000083e <finitereturn>:
 83e:	01 70 a0    	bset.w    w1, #0x7
 840:	24 00 05    	retlw.w   #0x2, w4

00000842 <nanorinf>:
 842:	81 0f 70    	ior.w     w0, w1, [w15]
 844:	01 00 32    	bra       Z, 0x848 <infinite> <_FCV_ISFX0>
 846:	04 08 05    	retlw.w   #0x80, w4

00000848 <infinite>:
 848:	44 00 05    	retlw.w   #0x4, w4

0000084a <zeroorsub>:
 84a:	81 0f 70    	ior.w     w0, w1, [w15]
 84c:	02 00 3a    	bra       NZ, 0x852 <subnormal>
 84e:	14 00 05    	retlw.w   #0x1, w4

00000850 <normalize>:
 850:	85 02 e9    	dec.w     w5, w5

00000852 <subnormal>:
 852:	00 00 40    	add.w     w0, w0, w0
 854:	81 c0 48    	addc.b    w1, w1, w1
 856:	fc ff 3b    	bra       NN, 0x850 <normalize>
 858:	01 70 a0    	bset.w    w1, #0x7
 85a:	24 00 05    	retlw.w   #0x2, w4

0000085c <__sincos>:
 85c:	08 00 fa    	lnk       #0x8
 85e:	88 9f be    	mov.d     w8, [w15++]
 860:	8a 9f be    	mov.d     w10, [w15++]
 862:	8c 9f be    	mov.d     w12, [w15++]
 864:	04 06 78    	mov.w     w4, w12
 866:	00 04 be    	mov.d     w0, w8
 868:	02 05 be    	mov.d     w2, w10
 86a:	b3 00 07    	rcall     0x9d2 <__dtype> <.libm>
 86c:	64 20 e1    	cp.w      w4, #0x4
 86e:	9f 00 3e    	bra       GTU, 0x9ae <xIsNaN>
 870:	9b 00 32    	bra       Z, 0x9a8 <xIsInf>
 872:	61 20 e1    	cp.w      w4, #0x1
 874:	96 00 32    	bra       Z, 0x9a2 <xIsZero>
 876:	03 f0 a1    	bclr.w    w3, #0xf
 878:	17 1b 24    	mov.w     #0x41b1, w7
 87a:	36 58 2c    	mov.w     #0xc583, w6
 87c:	05 a0 21    	mov.w     #0x1a00, w5
 87e:	04 00 20    	mov.w     #0x0, w4
 880:	28 fd 07    	rcall     0x2d2 <___eqdf2> <___ledf2> <___ltdf2> <.libm>
 882:	08 00 be    	mov.d     w8, w0
 884:	0a 01 be    	mov.d     w10, w2
 886:	07 00 35    	bra       LT, 0x896 <inrange> <_FCV_CHORUSVOICESUM>
 888:	97 01 24    	mov.w     #0x4019, w7
 88a:	b6 1f 22    	mov.w     #0x21fb, w6
 88c:	45 44 25    	mov.w     #0x5444, w5
 88e:	84 d1 22    	mov.w     #0x2d18, w4
 890:	03 01 07    	rcall     0xa98 <_fmod> <_fmodl> <.libm>
 892:	00 04 be    	mov.d     w0, w8
 894:	02 05 be    	mov.d     w2, w10

00000896 <inrange>:
 896:	80 06 eb    	clr.w     w13
 898:	0c 00 a7    	btsc.w    w12, #0x0
 89a:	cf 1e de    	lsr.w     w3, #0xf, w13
 89c:	03 f0 a1    	bclr.w    w3, #0xf
 89e:	0b f0 a1    	bclr.w    w11, #0xf
 8a0:	47 fd 23    	mov.w     #0x3fd4, w7
 8a2:	06 f3 25    	mov.w     #0x5f30, w6
 8a4:	95 dc 26    	mov.w     #0x6dc9, w5
 8a6:	34 88 2c    	mov.w     #0xc883, w4
 8a8:	9f fc 07    	rcall     0x1e8 <___muldf3> <.libm>
 8aa:	60 22 b8    	mul.uu    w4, #0x0, w4
 8ac:	00 03 eb    	clr.w     w6
 8ae:	07 fe 23    	mov.w     #0x3fe0, w7
 8b0:	0c 00 a6    	btss.w    w12, #0x0
 8b2:	07 ff 23    	mov.w     #0x3ff0, w7
 8b4:	13 fd 07    	rcall     0x2dc <___adddf3> <.libm>
 8b6:	98 fd 07    	rcall     0x3e8 <___fixdfsi> <.libm>
 8b8:	00 00 a7    	btsc.w    w0, #0x0
 8ba:	0d 00 a2    	btg.w     w13, #0x0
 8bc:	c3 fd 07    	rcall     0x444 <___floatsidf> <.libm>
 8be:	0c 00 e0    	cp0.w     w12
 8c0:	04 00 3a    	bra       NZ, 0x8ca <common>
 8c2:	07 fe 23    	mov.w     #0x3fe0, w7
 8c4:	06 00 20    	mov.w     #0x0, w6
 8c6:	60 22 b8    	mul.uu    w4, #0x0, w4
 8c8:	bb fd 07    	rcall     0x440 <___subdf3> <.libm>

000008ca <common>:
 8ca:	03 f0 a2    	btg.w     w3, #0xf
 8cc:	00 9f be    	mov.d     w0, [w14++]
 8ce:	02 97 be    	mov.d     w2, [w14--]
 8d0:	97 00 24    	mov.w     #0x4009, w7
 8d2:	06 00 22    	mov.w     #0x2000, w6
 8d4:	60 22 b8    	mul.uu    w4, #0x0, w4
 8d6:	88 fc 07    	rcall     0x1e8 <___muldf3> <.libm>
 8d8:	08 02 be    	mov.d     w8, w4
 8da:	0a 03 be    	mov.d     w10, w6
 8dc:	ff fc 07    	rcall     0x2dc <___adddf3> <.libm>
 8de:	80 9f be    	mov.d     w0, [w15++]
 8e0:	82 9f be    	mov.d     w2, [w15++]
 8e2:	3e 00 be    	mov.d     [w14++], w0
 8e4:	2e 01 be    	mov.d     [w14--], w2
 8e6:	f7 f4 23    	mov.w     #0x3f4f, w7
 8e8:	46 54 2b    	mov.w     #0xb544, w6
 8ea:	15 2d 24    	mov.w     #0x42d1, w5
 8ec:	a4 46 28    	mov.w     #0x846a, w4
 8ee:	7c fc 07    	rcall     0x1e8 <___muldf3> <.libm>
 8f0:	4f 03 be    	mov.d     [--w15], w6
 8f2:	4f 02 be    	mov.d     [--w15], w4
 8f4:	f3 fc 07    	rcall     0x2dc <___adddf3> <.libm>
 8f6:	00 04 be    	mov.d     w0, w8
 8f8:	02 05 be    	mov.d     w2, w10
 8fa:	03 f0 a1    	bclr.w    w3, #0xf
 8fc:	67 e4 23    	mov.w     #0x3e46, w7
 8fe:	e6 09 2a    	mov.w     #0xa09e, w6
 900:	f5 67 26    	mov.w     #0x667f, w5
 902:	d4 bc 23    	mov.w     #0x3bcd, w4
 904:	e6 fc 07    	rcall     0x2d2 <___eqdf2> <___ledf2> <___ltdf2> <.libm>
 906:	08 00 be    	mov.d     w8, w0
 908:	0a 01 be    	mov.d     w10, w2
 90a:	48 00 35    	bra       LT, 0x99c <signresult>
 90c:	00 02 be    	mov.d     w0, w4
 90e:	02 03 be    	mov.d     w2, w6
 910:	6b fc 07    	rcall     0x1e8 <___muldf3> <.libm>
 912:	00 9f be    	mov.d     w0, [w14++]
 914:	02 97 be    	mov.d     w2, [w14--]
 916:	87 ce 23    	mov.w     #0x3ce8, w7
 918:	f6 0f 28    	mov.w     #0x80ff, w6
 91a:	35 99 26    	mov.w     #0x6993, w5
 91c:	54 f9 2d    	mov.w     #0xdf95, w4
 91e:	64 fc 07    	rcall     0x1e8 <___muldf3> <.libm>
 920:	a7 d6 2b    	mov.w     #0xbd6a, w7
 922:	06 42 2e    	mov.w     #0xe420, w6
 924:	85 c0 2d    	mov.w     #0xdc08, w5
 926:	c4 99 24    	mov.w     #0x499c, w4
 928:	d9 fc 07    	rcall     0x2dc <___adddf3> <.libm>
 92a:	3e 02 be    	mov.d     [w14++], w4
 92c:	2e 03 be    	mov.d     [w14--], w6
 92e:	5c fc 07    	rcall     0x1e8 <___muldf3> <.libm>
 930:	67 de 23    	mov.w     #0x3de6, w7
 932:	c6 23 21    	mov.w     #0x123c, w6
 934:	a5 86 26    	mov.w     #0x686a, w5
 936:	04 43 2d    	mov.w     #0xd430, w4
 938:	d1 fc 07    	rcall     0x2dc <___adddf3> <.libm>
 93a:	3e 02 be    	mov.d     [w14++], w4
 93c:	2e 03 be    	mov.d     [w14--], w6
 93e:	54 fc 07    	rcall     0x1e8 <___muldf3> <.libm>
 940:	a7 e5 2b    	mov.w     #0xbe5a, w7
 942:	56 64 2e    	mov.w     #0xe645, w6
 944:	d5 b5 24    	mov.w     #0x4b5d, w5
 946:	b4 0a 2c    	mov.w     #0xc0ab, w4
 948:	c9 fc 07    	rcall     0x2dc <___adddf3> <.libm>
 94a:	3e 02 be    	mov.d     [w14++], w4
 94c:	2e 03 be    	mov.d     [w14--], w6
 94e:	4c fc 07    	rcall     0x1e8 <___muldf3> <.libm>
 950:	77 ec 23    	mov.w     #0x3ec7, w7
 952:	36 de 21    	mov.w     #0x1de3, w6
 954:	45 52 2a    	mov.w     #0xa524, w5
 956:	34 06 2f    	mov.w     #0xf063, w4
 958:	c1 fc 07    	rcall     0x2dc <___adddf3> <.libm>
 95a:	3e 02 be    	mov.d     [w14++], w4
 95c:	2e 03 be    	mov.d     [w14--], w6
 95e:	44 fc 07    	rcall     0x1e8 <___muldf3> <.libm>
 960:	a7 f2 2b    	mov.w     #0xbf2a, w7
 962:	06 1a 20    	mov.w     #0x1a0, w6
 964:	15 a0 21    	mov.w     #0x1a01, w5
 966:	a4 e1 23    	mov.w     #0x3e1a, w4
 968:	b9 fc 07    	rcall     0x2dc <___adddf3> <.libm>
 96a:	3e 02 be    	mov.d     [w14++], w4
 96c:	2e 03 be    	mov.d     [w14--], w6
 96e:	3c fc 07    	rcall     0x1e8 <___muldf3> <.libm>
 970:	17 f8 23    	mov.w     #0x3f81, w7
 972:	16 11 21    	mov.w     #0x1111, w6
 974:	15 11 21    	mov.w     #0x1111, w5
 976:	04 0b 21    	mov.w     #0x10b0, w4
 978:	b1 fc 07    	rcall     0x2dc <___adddf3> <.libm>
 97a:	3e 02 be    	mov.d     [w14++], w4
 97c:	2e 03 be    	mov.d     [w14--], w6
 97e:	34 fc 07    	rcall     0x1e8 <___muldf3> <.libm>
 980:	57 fc 2b    	mov.w     #0xbfc5, w7
 982:	56 55 25    	mov.w     #0x5555, w6
 984:	55 55 25    	mov.w     #0x5555, w5
 986:	54 55 25    	mov.w     #0x5555, w4
 988:	a9 fc 07    	rcall     0x2dc <___adddf3> <.libm>
 98a:	3e 02 be    	mov.d     [w14++], w4
 98c:	2e 03 be    	mov.d     [w14--], w6
 98e:	2c fc 07    	rcall     0x1e8 <___muldf3> <.libm>
 990:	08 02 be    	mov.d     w8, w4
 992:	0a 03 be    	mov.d     w10, w6
 994:	29 fc 07    	rcall     0x1e8 <___muldf3> <.libm>
 996:	08 02 be    	mov.d     w8, w4
 998:	0a 03 be    	mov.d     w10, w6
 99a:	a0 fc 07    	rcall     0x2dc <___adddf3> <.libm>

0000099c <signresult>:
 99c:	0d 00 a7    	btsc.w    w13, #0x0
 99e:	03 f0 a2    	btg.w     w3, #0xf

000009a0 <return0>:
 9a0:	44 fe 37    	bra       0x62a <__dunpack2exit>

000009a2 <xIsZero>:
 9a2:	0c 00 a6    	btss.w    w12, #0x0
 9a4:	03 ff 23    	mov.w     #0x3ff0, w3
 9a6:	41 fe 37    	bra       0x62a <__dunpack2exit>

000009a8 <xIsInf>:
 9a8:	f3 ff 27    	mov.w     #0x7fff, w3
 9aa:	f2 ff 2f    	mov.w     #0xffff, w2
 9ac:	61 10 b9    	mul.su    w2, #0x1, w0

000009ae <xIsNaN>:
 9ae:	03 30 a0    	bset.w    w3, #0x3

000009b0 <domainerr>:
 9b0:	14 02 20    	mov.w     #0x21, w4
 9b2:	b4 74 88    	mov.w     w4, 0xe96
 9b4:	3a fe 37    	bra       0x62a <__dunpack2exit>

000009b6 <__dPropagateNaN>:
 9b6:	e4 82 40    	add.w     w1, #0x4, w5
 9b8:	10 78 a3    	btst.z    [w0], #0x7
 9ba:	07 00 32    	bra       Z, 0x9ca <returnb>
 9bc:	64 02 40    	add.w     w0, #0x4, w4
 9be:	11 78 a3    	btst.z    [w1], #0x7
 9c0:	34 00 be    	mov.d     [w4++], w0
 9c2:	14 01 be    	mov.d     [w4], w2
 9c4:	04 00 32    	bra       Z, 0x9ce <returnab>
 9c6:	03 30 a7    	btsc.w    w3, #0x3
 9c8:	00 00 06    	return    

000009ca <returnb>:
 9ca:	35 00 be    	mov.d     [w5++], w0
 9cc:	15 01 be    	mov.d     [w5], w2

000009ce <returnab>:
 9ce:	03 30 a0    	bset.w    w3, #0x3
 9d0:	00 00 06    	return    

000009d2 <__dtype>:
 9d2:	05 ff 27    	mov.w     #0x7ff0, w5
 9d4:	05 82 61    	and.w     w3, w5, w4
 9d6:	07 00 32    	bra       Z, 0x9e6 <zeroorsub>
 9d8:	04 28 e1    	cp.w      w5, w4
 9da:	01 00 32    	bra       Z, 0x9de <NaNorInf>

000009dc <isFinite>:
 9dc:	24 00 05    	retlw.w   #0x2, w4

000009de <NaNorInf>:
 9de:	06 00 07    	rcall     0x9ec <checkfrac>
 9e0:	01 00 3a    	bra       NZ, 0x9e4 <isNaN>
 9e2:	44 00 05    	retlw.w   #0x4, w4

000009e4 <isNaN>:
 9e4:	04 08 05    	retlw.w   #0x80, w4

000009e6 <zeroorsub>:
 9e6:	02 00 07    	rcall     0x9ec <checkfrac>
 9e8:	f9 ff 3a    	bra       NZ, 0x9dc <isFinite>
 9ea:	14 00 05    	retlw.w   #0x1, w4

000009ec <checkfrac>:
 9ec:	6f 82 61    	and.w     w3, #0xf, w4
 9ee:	81 02 70    	ior.w     w0, w1, w5
 9f0:	85 02 71    	ior.w     w2, w5, w5
 9f2:	85 02 72    	ior.w     w4, w5, w5
 9f4:	00 00 06    	return    

000009f6 <___floatundidf>:
 9f6:	88 9f be    	mov.d     w8, [w15++]
 9f8:	00 82 70    	ior.w     w1, w0, w4
 9fa:	04 02 71    	ior.w     w2, w4, w4
 9fc:	04 82 71    	ior.w     w3, w4, w4
 9fe:	24 00 32    	bra       Z, 0xa48 <return0>
 a00:	36 43 20    	mov.w     #0x433, w6
 a02:	c5 00 20    	mov.w     #0xc, w5
 a04:	83 83 cf    	ff1l      w3, w7
 a06:	0a 00 39    	bra       NC, 0xa1c <fixshift>
 a08:	05 41 b1    	sub.b     #0x10, w5
 a0a:	82 83 cf    	ff1l      w2, w7
 a0c:	07 00 39    	bra       NC, 0xa1c <fixshift>
 a0e:	05 41 b1    	sub.b     #0x10, w5
 a10:	81 83 cf    	ff1l      w1, w7
 a12:	04 00 39    	bra       NC, 0xa1c <fixshift>
 a14:	05 41 b1    	sub.b     #0x10, w5
 a16:	80 83 cf    	ff1l      w0, w7
 a18:	01 00 39    	bra       NC, 0xa1c <fixshift>
 a1a:	05 41 b1    	sub.b     #0x10, w5

00000a1c <fixshift>:
 a1c:	85 c3 53    	sub.b     w7, w5, w7
 a1e:	60 22 b8    	mul.uu    w4, #0x0, w4
 a20:	12 00 32    	bra       Z, 0xa46 <round>
 a22:	0a 00 3b    	bra       NN, 0xa38 <shiftleft>

00000a24 <shiftright>:
 a24:	84 82 72    	ior.w     w5, w4, w5
 a26:	61 02 60    	and.w     w0, #0x1, w4
 a28:	83 01 d1    	lsr.w     w3, w3
 a2a:	02 81 d3    	rrc.w     w2, w2
 a2c:	81 80 d3    	rrc.w     w1, w1
 a2e:	00 80 d3    	rrc.w     w0, w0
 a30:	06 03 e8    	inc.w     w6, w6
 a32:	87 43 e8    	inc.b     w7, w7
 a34:	f7 ff 3a    	bra       NZ, 0xa24 <shiftright>
 a36:	07 00 37    	bra       0xa46 <round>

00000a38 <shiftleft>:
 a38:	00 00 40    	add.w     w0, w0, w0
 a3a:	81 80 48    	addc.w    w1, w1, w1
 a3c:	02 01 49    	addc.w    w2, w2, w2
 a3e:	83 81 49    	addc.w    w3, w3, w3
 a40:	06 03 e9    	dec.w     w6, w6
 a42:	87 43 e9    	dec.b     w7, w7
 a44:	f9 ff 3a    	bra       NZ, 0xa38 <shiftleft>

00000a46 <round>:
 a46:	f6 fd 07    	rcall     0x634 <__dpack> <.libm>

00000a48 <return0>:
 a48:	4f 04 be    	mov.d     [--w15], w8
 a4a:	00 00 06    	return    

00000a4c <__fpack>:
 a4c:	81 00 20    	mov.w     #0x8, w1
 a4e:	61 80 55    	sub.w     w11, #0x1, w0
 a50:	0b 00 3d    	bra       GE, 0xa68 <notsubnormal>
 a52:	0b 00 20    	mov.w     #0x0, w11
 a54:	61 fe 2f    	mov.w     #0xffe6, w1
 a56:	01 00 e1    	cp.w      w0, w1
 a58:	1d 00 34    	bra       LE, 0xa94 <zerosig>

00000a5a <subnormal>:
 a5a:	82 81 71    	ior.w     w3, w2, w3
 a5c:	61 01 64    	and.w     w8, #0x1, w2
 a5e:	89 04 d1    	lsr.w     w9, w9
 a60:	08 84 d3    	rrc.w     w8, w8
 a62:	00 00 e8    	inc.w     w0, w0
 a64:	fa ff 3a    	bra       NZ, 0xa5a <subnormal>
 a66:	71 00 20    	mov.w     #0x7, w1

00000a68 <notsubnormal>:
 a68:	61 00 64    	and.w     w8, #0x1, w0
 a6a:	03 00 70    	ior.w     w0, w3, w0
 a6c:	02 00 60    	and.w     w0, w2, w0
 a6e:	09 00 32    	bra       Z, 0xa82 <packupandgo>
 a70:	61 04 44    	add.w     w8, #0x1, w8
 a72:	e0 84 4c    	addc.w    w9, #0x0, w9
 a74:	09 88 a5    	btst.z    w9, w1
 a76:	05 00 32    	bra       Z, 0xa82 <packupandgo>
 a78:	8b 05 e8    	inc.w     w11, w11
 a7a:	68 08 e1    	cp.w      w1, #0x8
 a7c:	02 00 3a    	bra       NZ, 0xa82 <packupandgo>
 a7e:	89 04 d1    	lsr.w     w9, w9
 a80:	08 84 d3    	rrc.w     w8, w8

00000a82 <packupandgo>:
 a82:	f2 0f 20    	mov.w     #0xff, w2
 a84:	02 58 e1    	cp.w      w11, w2
 a86:	05 00 3d    	bra       GE, 0xa92 <overflow>
 a88:	c7 5d dd    	sl.w      w11, #0x7, w11
 a8a:	f9 07 b2    	and.w     #0x7f, w9
 a8c:	89 80 75    	ior.w     w11, w9, w1
 a8e:	08 00 78    	mov.w     w8, w0
 a90:	00 00 06    	return    

00000a92 <overflow>:
 a92:	0b f8 27    	mov.w     #0x7f80, w11

00000a94 <zerosig>:
 a94:	8b 00 78    	mov.w     w11, w1
 a96:	00 00 05    	retlw.w   #0x0, w0

00000a98 <_fmod>:
 a98:	80 1f eb    	clr.w     [w15++]
 a9a:	02 00 07    	rcall     0xaa0 <__dmodrem> <.libm>
 a9c:	8f 87 e9    	dec2.w    w15, w15
 a9e:	00 00 06    	return    

00000aa0 <__dmodrem>:
 aa0:	28 00 fa    	lnk       #0x28
 aa2:	88 9f be    	mov.d     w8, [w15++]
 aa4:	8a 9f be    	mov.d     w10, [w15++]
 aa6:	8c 9f be    	mov.d     w12, [w15++]
 aa8:	0e fe 97    	mov.b     [w14-8], w12
 aaa:	ab fd 07    	rcall     0x602 <__dunpack2> <.libm>
 aac:	61 08 e1    	cp.w      w1, #0x1
 aae:	5c 00 32    	bra       Z, 0xb68 <domainerr>
 ab0:	62 00 e1    	cp.w      w0, #0x2
 ab2:	5a 00 3e    	bra       GTU, 0xb68 <domainerr>
 ab4:	54 00 39    	bra       NC, 0xb5e <returna>
 ab6:	64 08 e1    	cp.w      w1, #0x4
 ab8:	52 00 32    	bra       Z, 0xb5e <returna>
 aba:	6c 01 47    	add.w     w14, #0xc, w2
 abc:	74 85 57    	sub.w     w15, #0x14, w10
 abe:	32 00 be    	mov.d     [w2++], w0
 ac0:	12 01 be    	mov.d     [w2], w2
 ac2:	3a 04 be    	mov.d     [w10++], w8
 ac4:	1a 05 be    	mov.d     [w10], w10
 ac6:	9e 02 90    	mov.w     [w14+2], w5
 ac8:	be 0e 90    	mov.w     [w14+22], w13
 aca:	0d 82 52    	sub.w     w5, w13, w4
 acc:	17 00 3b    	bra       NN, 0xafc <rementry>
 ace:	04 02 e8    	inc.w     w4, w4
 ad0:	46 00 3a    	bra       NZ, 0xb5e <returna>
 ad2:	88 0f 50    	sub.w     w0, w8, [w15]
 ad4:	89 8f 58    	subb.w    w1, w9, [w15]
 ad6:	8a 0f 59    	subb.w    w2, w10, [w15]
 ad8:	8b 8f 59    	subb.w    w3, w11, [w15]
 ada:	41 00 34    	bra       LE, 0xb5e <returna>
 adc:	64 01 47    	add.w     w14, #0x4, w2
 ade:	78 03 47    	add.w     w14, #0x18, w6
 ae0:	32 00 be    	mov.d     [w2++], w0
 ae2:	12 01 be    	mov.d     [w2], w2
 ae4:	36 02 be    	mov.d     [w6++], w4
 ae6:	16 03 be    	mov.d     [w6], w6
 ae8:	07 f0 a1    	bclr.w    w7, #0xf
 aea:	03 f0 a6    	btss.w    w3, #0xf
 aec:	07 f0 a0    	bset.w    w7, #0xf
 aee:	0c 70 a7    	btsc.w    w12, #0x7
 af0:	f5 fb 07    	rcall     0x2dc <___adddf3> <.libm>
 af2:	9b fd 37    	bra       0x62a <__dunpack2exit>

00000af4 <remloop>:
 af4:	00 00 40    	add.w     w0, w0, w0
 af6:	81 80 48    	addc.w    w1, w1, w1
 af8:	02 01 49    	addc.w    w2, w2, w2
 afa:	83 81 49    	addc.w    w3, w3, w3

00000afc <rementry>:
 afc:	0c 00 a0    	bset.w    w12, #0x0
 afe:	08 00 50    	sub.w     w0, w8, w0
 b00:	89 80 58    	subb.w    w1, w9, w1
 b02:	0a 01 59    	subb.w    w2, w10, w2
 b04:	8b 81 59    	subb.w    w3, w11, w3
 b06:	05 00 3b    	bra       NN, 0xb12 <remnext>
 b08:	08 00 40    	add.w     w0, w8, w0
 b0a:	89 80 48    	addc.w    w1, w9, w1
 b0c:	0a 01 49    	addc.w    w2, w10, w2
 b0e:	8b 81 49    	addc.w    w3, w11, w3
 b10:	0c 00 a1    	bclr.w    w12, #0x0

00000b12 <remnext>:
 b12:	04 02 e9    	dec.w     w4, w4
 b14:	ef ff 3b    	bra       NN, 0xaf4 <remloop>
 b16:	00 02 40    	add.w     w0, w0, w4
 b18:	81 82 48    	addc.w    w1, w1, w5
 b1a:	02 03 49    	addc.w    w2, w2, w6
 b1c:	83 83 49    	addc.w    w3, w3, w7
 b1e:	1b 00 32    	bra       Z, 0xb56 <setsign>
 b20:	08 02 52    	sub.w     w4, w8, w4
 b22:	89 82 5a    	subb.w    w5, w9, w5
 b24:	0a 03 5b    	subb.w    w6, w10, w6
 b26:	8b 83 5b    	subb.w    w7, w11, w7
 b28:	42 00 f8    	push      0x42
 b2a:	05 00 37    	bra       0xb36 <normrem>

00000b2c <normloop>:
 b2c:	00 00 40    	add.w     w0, w0, w0
 b2e:	81 80 48    	addc.w    w1, w1, w1
 b30:	02 01 49    	addc.w    w2, w2, w2
 b32:	83 81 49    	addc.w    w3, w3, w3
 b34:	8d 06 e9    	dec.w     w13, w13

00000b36 <normrem>:
 b36:	03 40 a6    	btss.w    w3, #0x4
 b38:	f9 ff 37    	bra       0xb2c <normloop>

00000b3a <normout>:
 b3a:	60 22 b8    	mul.uu    w4, #0x0, w4
 b3c:	0d 03 78    	mov.w     w13, w6
 b3e:	7a fd 07    	rcall     0x634 <__dpack> <.libm>
 b40:	78 03 47    	add.w     w14, #0x18, w6
 b42:	42 00 f9    	pop       0x42
 b44:	08 00 35    	bra       LT, 0xb56 <setsign>
 b46:	02 00 3c    	bra       GT, 0xb4c <adjustrem>
 b48:	0c 08 a3    	btst.z    w12, #0x0
 b4a:	05 00 32    	bra       Z, 0xb56 <setsign>

00000b4c <adjustrem>:
 b4c:	36 02 be    	mov.d     [w6++], w4
 b4e:	16 03 be    	mov.d     [w6], w6
 b50:	07 f0 a0    	bset.w    w7, #0xf
 b52:	0c 70 a7    	btsc.w    w12, #0x7
 b54:	c3 fb 07    	rcall     0x2dc <___adddf3> <.libm>

00000b56 <setsign>:
 b56:	5e 02 90    	mov.w     [w14+10], w4
 b58:	04 f0 a7    	btsc.w    w4, #0xf
 b5a:	03 f0 a2    	btg.w     w3, #0xf
 b5c:	66 fd 37    	bra       0x62a <__dunpack2exit>

00000b5e <returna>:
 b5e:	2e 00 90    	mov.w     [w14+4], w0
 b60:	be 00 90    	mov.w     [w14+6], w1
 b62:	4e 01 90    	mov.w     [w14+8], w2
 b64:	de 01 90    	mov.w     [w14+10], w3
 b66:	61 fd 37    	bra       0x62a <__dunpack2exit>

00000b68 <domainerr>:
 b68:	10 02 20    	mov.w     #0x21, w0
 b6a:	0c 70 a6    	btss.w    w12, #0x7
 b6c:	b0 74 88    	mov.w     w0, 0xe96
 b6e:	5a fd 37    	bra       0x624 <__dreturnNaN>
Disassembly of section __FOSC:

00f80000 <__FOSC.sec>:
  f80000:	17 87 00    	nop       
Disassembly of section __FWDT:

00f80002 <__FWDT.sec>:
  f80002:	3f 00 00    	nop       
Disassembly of section __FBORPOR:

00f80004 <__FBORPOR.sec>:
  f80004:	b3 87 00    	nop       
Disassembly of section __FGS:

00f8000a <__FGS.sec>:
  f8000a:	ff ff 00    	nop       
Disassembly of section __FICD:

00f8000c <__FICD.sec>:
  f8000c:	03 c0 00    	nop       
Disassembly of section .ivt._T1Interrupt:

0000001a <.ivt._T1Interrupt>:
  1a:	2c 2e 00    	nop       
Disassembly of section .ivt._T2Interrupt:

00000020 <.ivt._T2Interrupt>:
  20:	4e 2e 00    	nop       
Disassembly of section .ivt._T3Interrupt:

00000022 <.ivt._T3Interrupt>:
  22:	70 2e 00    	nop       
Disassembly of section .ivt._T4Interrupt:

0000003e <.ivt._T4Interrupt>:
  3e:	92 2e 00    	nop       
Disassembly of section .text:

00000ff2 <_FCI_GETLENGTH>:
     ff2:	00 01 eb    	clr.w     w2
     ff4:	01 00 e0    	cp0.w     w1
     ff6:	08 00 32    	bra       Z, 0x1008 <.L2>
     ff8:	10 04 e0    	cp0.b     [w0]
     ffa:	03 00 3a    	bra       NZ, 0x1002 <.L3>
     ffc:	05 00 37    	bra       0x1008 <.L2>

00000ffe <.L4>:
     ffe:	50 04 e0    	cp0.b     [++w0]
    1000:	03 00 32    	bra       Z, 0x1008 <.L2>

00001002 <.L3>:
    1002:	02 01 e8    	inc.w     w2, w2
    1004:	82 8f 50    	sub.w     w1, w2, [w15]
    1006:	fb ff 3e    	bra       GTU, 0xffe <.L4>

00001008 <.L2>:
    1008:	02 00 78    	mov.w     w2, w0
    100a:	00 00 06    	return    

0000100c <_FCI_TOSTRS32>:
    100c:	e8 87 47    	add.w     w15, #0x8, w15
    100e:	88 9f be    	mov.d     w8, [w15++]
    1010:	8a 9f be    	mov.d     w10, [w15++]
    1012:	8c 9f be    	mov.d     w12, [w15++]
    1014:	8e 1f 78    	mov.w     w14, [w15++]
    1016:	e2 b7 9f    	mov.w     w2, [w15-20]
    1018:	83 06 78    	mov.w     w3, w13
    101a:	00 46 eb    	clr.b     w12
    101c:	0d 00 e0    	cp0.w     w13
    101e:	43 00 32    	bra       Z, 0x10a6 <.L8>
    1020:	e0 0f 50    	sub.w     w0, #0x0, [w15]
    1022:	e0 8f 58    	subb.w    w1, #0x0, [w15]
    1024:	09 00 3d    	bra       GE, 0x1038 <.L18>
    1026:	d2 c2 b3    	mov.b     #0x2d, w2
    1028:	ef b1 97    	mov.w     [w15-20], w3
    102a:	82 49 78    	mov.b     w2, [w3]
    102c:	60 01 10    	subr.w    w0, #0x0, w2
    102e:	e0 81 18    	subbr.w   w1, #0x0, w3
    1030:	f2 b7 9f    	mov.w     w2, [w15-18]
    1032:	83 bf 9f    	mov.w     w3, [w15-16]
    1034:	1c 00 20    	mov.w     #0x1, w12
    1036:	03 00 37    	bra       0x103e <.L9>

00001038 <.L18>:
    1038:	f0 b7 9f    	mov.w     w0, [w15-18]
    103a:	81 bf 9f    	mov.w     w1, [w15-16]
    103c:	00 06 eb    	clr.w     w12

0000103e <.L9>:
    103e:	18 00 20    	mov.w     #0x1, w8
    1040:	09 00 20    	mov.w     #0x0, w9
    1042:	1e c0 b3    	mov.b     #0x1, w14
    1044:	7f b0 97    	mov.w     [w15-18], w0
    1046:	8f b8 97    	mov.w     [w15-16], w1
    1048:	e0 0f 50    	sub.w     w0, #0x0, [w15]
    104a:	e0 8f 58    	subb.w    w1, #0x0, [w15]
    104c:	03 00 32    	bra       Z, 0x1054 <.L10>
    104e:	08 a0 2c    	mov.w     #0xca00, w8
    1050:	a9 b9 23    	mov.w     #0x3b9a, w9
    1052:	00 47 eb    	clr.b     w14

00001054 <.L10>:
    1054:	8d 0f 56    	sub.w     w12, w13, [w15]
    1056:	27 00 31    	bra       C, 0x10a6 <.L8>
    1058:	e0 0f 54    	sub.w     w8, #0x0, [w15]
    105a:	e0 8f 5c    	subb.w    w9, #0x0, [w15]
    105c:	2b 00 32    	bra       Z, 0x10b4 <.L12>

0000105e <.L15>:
    105e:	7f b5 97    	mov.w     [w15-18], w10
    1060:	8f bd 97    	mov.w     [w15-16], w11
    1062:	88 0f 55    	sub.w     w10, w8, [w15]
    1064:	89 8f 5d    	subb.w    w11, w9, [w15]
    1066:	02 00 31    	bra       C, 0x106c <.L13>
    1068:	0e 04 e0    	cp0.b     w14
    106a:	12 00 32    	bra       Z, 0x1090 <.L14>

0000106c <.L13>:
    106c:	08 01 be    	mov.d     w8, w2
    106e:	0a 00 be    	mov.d     w10, w0
    1070:	ab f8 07    	rcall     0x1c8 <___udivsi3> <.libm>
    1072:	03 c3 b3    	mov.b     #0x30, w3
    1074:	83 40 40    	add.b     w0, w3, w1
    1076:	6f b1 97    	mov.w     [w15-20], w2
    1078:	01 71 7e    	mov.b     w1, [w2+w12]
    107a:	0c 06 e8    	inc.w     w12, w12
    107c:	00 80 fb    	ze        w0, w0
    107e:	80 00 eb    	clr.w     w1
    1080:	00 c9 b9    	mul.ss    w9, w0, w2
    1082:	08 00 b8    	mul.uu    w0, w8, w0
    1084:	81 00 41    	add.w     w2, w1, w1
    1086:	00 01 55    	sub.w     w10, w0, w2
    1088:	81 81 5d    	subb.w    w11, w1, w3
    108a:	f2 b7 9f    	mov.w     w2, [w15-18]
    108c:	83 bf 9f    	mov.w     w3, [w15-16]
    108e:	1e c0 b3    	mov.b     #0x1, w14

00001090 <.L14>:
    1090:	8d 0f 56    	sub.w     w12, w13, [w15]
    1092:	09 00 31    	bra       C, 0x10a6 <.L8>
    1094:	a2 00 20    	mov.w     #0xa, w2
    1096:	03 00 20    	mov.w     #0x0, w3
    1098:	08 00 be    	mov.d     w8, w0
    109a:	96 f8 07    	rcall     0x1c8 <___udivsi3> <.libm>
    109c:	00 04 be    	mov.d     w0, w8
    109e:	e0 0f 50    	sub.w     w0, #0x0, [w15]
    10a0:	e0 8f 58    	subb.w    w1, #0x0, [w15]
    10a2:	dd ff 3a    	bra       NZ, 0x105e <.L15>
    10a4:	07 00 37    	bra       0x10b4 <.L12>

000010a6 <.L8>:
    10a6:	0c 40 78    	mov.b     w12, w0
    10a8:	4f 07 78    	mov.w     [--w15], w14
    10aa:	4f 06 be    	mov.d     [--w15], w12
    10ac:	4f 05 be    	mov.d     [--w15], w10
    10ae:	4f 04 be    	mov.d     [--w15], w8
    10b0:	8f 00 b1    	sub.w     #0x8, w15
    10b2:	00 00 06    	return    

000010b4 <.L12>:
    10b4:	00 40 eb    	clr.b     w0
    10b6:	ef b1 97    	mov.w     [w15-20], w3
    10b8:	80 71 7e    	mov.b     w0, [w3+w12]
    10ba:	f5 ff 37    	bra       0x10a6 <.L8>

000010bc <_FCI_TOSTRU32>:
    10bc:	e4 87 47    	add.w     w15, #0x4, w15
    10be:	88 9f be    	mov.d     w8, [w15++]
    10c0:	8a 9f be    	mov.d     w10, [w15++]
    10c2:	8c 9f be    	mov.d     w12, [w15++]
    10c4:	8e 1f 78    	mov.w     w14, [w15++]
    10c6:	82 bf 9f    	mov.w     w2, [w15-16]
    10c8:	03 07 78    	mov.w     w3, w14
    10ca:	00 46 eb    	clr.b     w12
    10cc:	0e 00 e0    	cp0.w     w14
    10ce:	2c 00 32    	bra       Z, 0x1128 <.L21>
    10d0:	18 00 20    	mov.w     #0x1, w8
    10d2:	09 00 20    	mov.w     #0x0, w9
    10d4:	60 55 b8    	mul.uu    w10, #0x0, w10
    10d6:	1d c0 b3    	mov.b     #0x1, w13
    10d8:	e0 0f 50    	sub.w     w0, #0x0, [w15]
    10da:	e0 8f 58    	subb.w    w1, #0x0, [w15]
    10dc:	04 00 32    	bra       Z, 0x10e6 <.L22>
    10de:	00 05 be    	mov.d     w0, w10
    10e0:	08 a0 2c    	mov.w     #0xca00, w8
    10e2:	a9 b9 23    	mov.w     #0x3b9a, w9
    10e4:	80 46 eb    	clr.b     w13

000010e6 <.L22>:
    10e6:	00 06 eb    	clr.w     w12

000010e8 <.L26>:
    10e8:	88 0f 55    	sub.w     w10, w8, [w15]
    10ea:	89 8f 5d    	subb.w    w11, w9, [w15]
    10ec:	02 00 31    	bra       C, 0x10f2 <.L23>
    10ee:	0d 04 e0    	cp0.b     w13
    10f0:	10 00 32    	bra       Z, 0x1112 <.L24>

000010f2 <.L23>:
    10f2:	08 01 be    	mov.d     w8, w2
    10f4:	0a 00 be    	mov.d     w10, w0
    10f6:	68 f8 07    	rcall     0x1c8 <___udivsi3> <.libm>
    10f8:	02 c3 b3    	mov.b     #0x30, w2
    10fa:	82 40 40    	add.b     w0, w2, w1
    10fc:	0f b9 97    	mov.w     [w15-16], w2
    10fe:	01 71 7e    	mov.b     w1, [w2+w12]
    1100:	0c 06 e8    	inc.w     w12, w12
    1102:	00 80 fb    	ze        w0, w0
    1104:	80 00 eb    	clr.w     w1
    1106:	00 c9 b9    	mul.ss    w9, w0, w2
    1108:	08 00 b8    	mul.uu    w0, w8, w0
    110a:	81 00 41    	add.w     w2, w1, w1
    110c:	00 05 55    	sub.w     w10, w0, w10
    110e:	81 85 5d    	subb.w    w11, w1, w11
    1110:	1d c0 b3    	mov.b     #0x1, w13

00001112 <.L24>:
    1112:	8e 0f 56    	sub.w     w12, w14, [w15]
    1114:	09 00 31    	bra       C, 0x1128 <.L21>
    1116:	a2 00 20    	mov.w     #0xa, w2
    1118:	03 00 20    	mov.w     #0x0, w3
    111a:	08 00 be    	mov.d     w8, w0
    111c:	55 f8 07    	rcall     0x1c8 <___udivsi3> <.libm>
    111e:	00 04 be    	mov.d     w0, w8
    1120:	e0 0f 50    	sub.w     w0, #0x0, [w15]
    1122:	e0 8f 58    	subb.w    w1, #0x0, [w15]
    1124:	e1 ff 3a    	bra       NZ, 0x10e8 <.L26>
    1126:	07 00 37    	bra       0x1136 <.L31>

00001128 <.L21>:
    1128:	0c 40 78    	mov.b     w12, w0
    112a:	4f 07 78    	mov.w     [--w15], w14
    112c:	4f 06 be    	mov.d     [--w15], w12
    112e:	4f 05 be    	mov.d     [--w15], w10
    1130:	4f 04 be    	mov.d     [--w15], w8
    1132:	4f 00 b1    	sub.w     #0x4, w15
    1134:	00 00 06    	return    

00001136 <.L31>:
    1136:	00 40 eb    	clr.b     w0
    1138:	8f b8 97    	mov.w     [w15-16], w1
    113a:	80 70 7e    	mov.b     w0, [w1+w12]
    113c:	f5 ff 37    	bra       0x1128 <.L21>

0000113e <_FCI_TOSTRING>:
    113e:	e8 87 47    	add.w     w15, #0x8, w15
    1140:	88 9f be    	mov.d     w8, [w15++]
    1142:	8a 9f be    	mov.d     w10, [w15++]
    1144:	8c 9f be    	mov.d     w12, [w15++]
    1146:	8e 1f 78    	mov.w     w14, [w15++]
    1148:	e2 b7 9f    	mov.w     w2, [w15-20]
    114a:	83 06 78    	mov.w     w3, w13
    114c:	0d 00 e0    	cp0.w     w13
    114e:	43 00 32    	bra       Z, 0x11d6 <.L33>
    1150:	e0 0f 50    	sub.w     w0, #0x0, [w15]
    1152:	e0 8f 58    	subb.w    w1, #0x0, [w15]
    1154:	09 00 3d    	bra       GE, 0x1168 <.L40>
    1156:	d2 c2 b3    	mov.b     #0x2d, w2
    1158:	ef b1 97    	mov.w     [w15-20], w3
    115a:	82 49 78    	mov.b     w2, [w3]
    115c:	60 01 10    	subr.w    w0, #0x0, w2
    115e:	e0 81 18    	subbr.w   w1, #0x0, w3
    1160:	f2 b7 9f    	mov.w     w2, [w15-18]
    1162:	83 bf 9f    	mov.w     w3, [w15-16]
    1164:	1c 00 20    	mov.w     #0x1, w12
    1166:	03 00 37    	bra       0x116e <.L34>

00001168 <.L40>:
    1168:	f0 b7 9f    	mov.w     w0, [w15-18]
    116a:	81 bf 9f    	mov.w     w1, [w15-16]
    116c:	00 06 eb    	clr.w     w12

0000116e <.L34>:
    116e:	18 00 20    	mov.w     #0x1, w8
    1170:	09 00 20    	mov.w     #0x0, w9
    1172:	1e c0 b3    	mov.b     #0x1, w14
    1174:	7f b0 97    	mov.w     [w15-18], w0
    1176:	8f b8 97    	mov.w     [w15-16], w1
    1178:	e0 0f 50    	sub.w     w0, #0x0, [w15]
    117a:	e0 8f 58    	subb.w    w1, #0x0, [w15]
    117c:	03 00 32    	bra       Z, 0x1184 <.L35>
    117e:	08 a0 2c    	mov.w     #0xca00, w8
    1180:	a9 b9 23    	mov.w     #0x3b9a, w9
    1182:	00 47 eb    	clr.b     w14

00001184 <.L35>:
    1184:	8d 0f 56    	sub.w     w12, w13, [w15]
    1186:	27 00 31    	bra       C, 0x11d6 <.L33>
    1188:	e0 0f 54    	sub.w     w8, #0x0, [w15]
    118a:	e0 8f 5c    	subb.w    w9, #0x0, [w15]
    118c:	2b 00 32    	bra       Z, 0x11e4 <.L36>

0000118e <.L39>:
    118e:	7f b5 97    	mov.w     [w15-18], w10
    1190:	8f bd 97    	mov.w     [w15-16], w11
    1192:	88 0f 55    	sub.w     w10, w8, [w15]
    1194:	89 8f 5d    	subb.w    w11, w9, [w15]
    1196:	02 00 31    	bra       C, 0x119c <.L37>
    1198:	0e 04 e0    	cp0.b     w14
    119a:	12 00 32    	bra       Z, 0x11c0 <.L38>

0000119c <.L37>:
    119c:	08 01 be    	mov.d     w8, w2
    119e:	0a 00 be    	mov.d     w10, w0
    11a0:	13 f8 07    	rcall     0x1c8 <___udivsi3> <.libm>
    11a2:	03 c3 b3    	mov.b     #0x30, w3
    11a4:	83 40 40    	add.b     w0, w3, w1
    11a6:	6f b1 97    	mov.w     [w15-20], w2
    11a8:	01 71 7e    	mov.b     w1, [w2+w12]
    11aa:	0c 06 e8    	inc.w     w12, w12
    11ac:	00 80 fb    	ze        w0, w0
    11ae:	80 00 eb    	clr.w     w1
    11b0:	00 c9 b9    	mul.ss    w9, w0, w2
    11b2:	08 00 b8    	mul.uu    w0, w8, w0
    11b4:	81 00 41    	add.w     w2, w1, w1
    11b6:	00 01 55    	sub.w     w10, w0, w2
    11b8:	81 81 5d    	subb.w    w11, w1, w3
    11ba:	f2 b7 9f    	mov.w     w2, [w15-18]
    11bc:	83 bf 9f    	mov.w     w3, [w15-16]
    11be:	1e c0 b3    	mov.b     #0x1, w14

000011c0 <.L38>:
    11c0:	8d 0f 56    	sub.w     w12, w13, [w15]
    11c2:	09 00 31    	bra       C, 0x11d6 <.L33>
    11c4:	a2 00 20    	mov.w     #0xa, w2
    11c6:	03 00 20    	mov.w     #0x0, w3
    11c8:	08 00 be    	mov.d     w8, w0
    11ca:	fe f7 07    	rcall     0x1c8 <___udivsi3> <.libm>
    11cc:	00 04 be    	mov.d     w0, w8
    11ce:	e0 0f 50    	sub.w     w0, #0x0, [w15]
    11d0:	e0 8f 58    	subb.w    w1, #0x0, [w15]
    11d2:	dd ff 3a    	bra       NZ, 0x118e <.L39>
    11d4:	07 00 37    	bra       0x11e4 <.L36>

000011d6 <.L33>:
    11d6:	6f b0 97    	mov.w     [w15-20], w0
    11d8:	4f 07 78    	mov.w     [--w15], w14
    11da:	4f 06 be    	mov.d     [--w15], w12
    11dc:	4f 05 be    	mov.d     [--w15], w10
    11de:	4f 04 be    	mov.d     [--w15], w8
    11e0:	8f 00 b1    	sub.w     #0x8, w15
    11e2:	00 00 06    	return    

000011e4 <.L36>:
    11e4:	00 40 eb    	clr.b     w0
    11e6:	ef b1 97    	mov.w     [w15-20], w3
    11e8:	80 71 7e    	mov.b     w0, [w3+w12]
    11ea:	f5 ff 37    	bra       0x11d6 <.L33>

000011ec <_FCI_SHEAD>:
    11ec:	88 9f be    	mov.d     w8, [w15++]
    11ee:	84 0f 51    	sub.w     w2, w4, [w15]
    11f0:	09 00 32    	bra       Z, 0x1204 <.L43>
    11f2:	01 00 e0    	cp0.w     w1
    11f4:	62 00 32    	bra       Z, 0x12ba <.L67>
    11f6:	05 00 e0    	cp0.w     w5
    11f8:	7c 00 32    	bra       Z, 0x12f2 <.L42>
    11fa:	90 43 78    	mov.b     [w0], w7
    11fc:	00 03 eb    	clr.w     w6
    11fe:	07 04 e0    	cp0.b     w7
    1200:	50 00 3a    	bra       NZ, 0x12a2 <.L79>
    1202:	5c 00 37    	bra       0x12bc <.L44>

00001204 <.L43>:
    1204:	00 03 eb    	clr.w     w6
    1206:	01 00 e0    	cp0.w     w1
    1208:	09 00 32    	bra       Z, 0x121c <.L47>
    120a:	10 04 e0    	cp0.b     [w0]
    120c:	07 00 32    	bra       Z, 0x121c <.L47>
    120e:	80 03 78    	mov.w     w0, w7
    1210:	02 00 37    	bra       0x1216 <.L48>

00001212 <.L49>:
    1212:	57 04 e0    	cp0.b     [++w7]
    1214:	03 00 32    	bra       Z, 0x121c <.L47>

00001216 <.L48>:
    1216:	06 03 e8    	inc.w     w6, w6
    1218:	86 8f 50    	sub.w     w1, w6, [w15]
    121a:	fb ff 3e    	bra       GTU, 0x1212 <.L49>

0000121c <.L47>:
    121c:	86 8f 52    	sub.w     w5, w6, [w15]
    121e:	09 00 3e    	bra       GTU, 0x1232 <.L50>
    1220:	01 00 e0    	cp0.w     w1
    1222:	62 00 32    	bra       Z, 0x12e8 <.L70>
    1224:	05 00 e0    	cp0.w     w5
    1226:	65 00 32    	bra       Z, 0x12f2 <.L42>
    1228:	10 41 78    	mov.b     [w0], w2
    122a:	00 03 eb    	clr.w     w6
    122c:	02 04 e0    	cp0.b     w2
    122e:	2d 00 3a    	bra       NZ, 0x128a <.L80>
    1230:	5c 00 37    	bra       0x12ea <.L51>

00001232 <.L50>:
    1232:	80 03 eb    	clr.w     w7
    1234:	03 00 e0    	cp0.w     w3
    1236:	16 00 32    	bra       Z, 0x1264 <.L53>
    1238:	12 04 e0    	cp0.b     [w2]
    123a:	14 00 32    	bra       Z, 0x1264 <.L53>
    123c:	02 04 78    	mov.w     w2, w8
    123e:	02 00 37    	bra       0x1244 <.L54>

00001240 <.L56>:
    1240:	58 04 e0    	cp0.b     [++w8]
    1242:	03 00 32    	bra       Z, 0x124a <.L55>

00001244 <.L54>:
    1244:	87 03 e8    	inc.w     w7, w7
    1246:	87 8f 51    	sub.w     w3, w7, [w15]
    1248:	fb ff 3e    	bra       GTU, 0x1240 <.L56>

0000124a <.L55>:
    124a:	86 81 52    	sub.w     w5, w6, w3
    124c:	83 8f 53    	sub.w     w7, w3, [w15]
    124e:	01 00 36    	bra       LEU, 0x1252 <.L57>
    1250:	83 03 78    	mov.w     w3, w7

00001252 <.L57>:
    1252:	07 00 e0    	cp0.w     w7
    1254:	07 00 32    	bra       Z, 0x1264 <.L53>
    1256:	87 04 41    	add.w     w2, w7, w9
    1258:	06 83 43    	add.w     w7, w6, w6
    125a:	06 04 41    	add.w     w2, w6, w8
    125c:	87 01 78    	mov.w     w7, w3

0000125e <.L58>:
    125e:	83 01 e9    	dec.w     w3, w3
    1260:	49 64 78    	mov.b     [--w9], [--w8]
    1262:	fd ff 3a    	bra       NZ, 0x125e <.L58>

00001264 <.L53>:
    1264:	80 01 eb    	clr.w     w3
    1266:	01 00 e0    	cp0.w     w1
    1268:	0e 00 32    	bra       Z, 0x1286 <.L59>
    126a:	05 00 e0    	cp0.w     w5
    126c:	0c 00 32    	bra       Z, 0x1286 <.L59>
    126e:	10 44 78    	mov.b     [w0], w8
    1270:	08 04 e0    	cp0.b     w8
    1272:	09 00 32    	bra       Z, 0x1286 <.L59>

00001274 <.L60>:
    1274:	08 59 78    	mov.b     w8, [w2++]
    1276:	83 01 e8    	inc.w     w3, w3
    1278:	83 8f 50    	sub.w     w1, w3, [w15]
    127a:	05 00 36    	bra       LEU, 0x1286 <.L59>
    127c:	83 8f 52    	sub.w     w5, w3, [w15]
    127e:	03 00 36    	bra       LEU, 0x1286 <.L59>
    1280:	50 44 78    	mov.b     [++w0], w8
    1282:	08 04 e0    	cp0.b     w8
    1284:	f7 ff 3a    	bra       NZ, 0x1274 <.L60>

00001286 <.L59>:
    1286:	07 83 41    	add.w     w3, w7, w6
    1288:	30 00 37    	bra       0x12ea <.L51>

0000128a <.L80>:
    128a:	84 01 78    	mov.w     w4, w3
    128c:	00 03 eb    	clr.w     w6

0000128e <.L61>:
    128e:	82 59 78    	mov.b     w2, [w3++]
    1290:	06 03 e8    	inc.w     w6, w6
    1292:	86 8f 50    	sub.w     w1, w6, [w15]
    1294:	2a 00 36    	bra       LEU, 0x12ea <.L51>
    1296:	86 8f 52    	sub.w     w5, w6, [w15]
    1298:	2c 00 36    	bra       LEU, 0x12f2 <.L42>
    129a:	50 41 78    	mov.b     [++w0], w2
    129c:	02 04 e0    	cp0.b     w2
    129e:	f7 ff 3a    	bra       NZ, 0x128e <.L61>
    12a0:	26 00 37    	bra       0x12ee <.L62>

000012a2 <.L79>:
    12a2:	04 04 78    	mov.w     w4, w8
    12a4:	00 03 eb    	clr.w     w6

000012a6 <.L63>:
    12a6:	07 5c 78    	mov.b     w7, [w8++]
    12a8:	06 03 e8    	inc.w     w6, w6
    12aa:	86 8f 50    	sub.w     w1, w6, [w15]
    12ac:	07 00 36    	bra       LEU, 0x12bc <.L44>
    12ae:	86 8f 52    	sub.w     w5, w6, [w15]
    12b0:	20 00 36    	bra       LEU, 0x12f2 <.L42>
    12b2:	d0 43 78    	mov.b     [++w0], w7
    12b4:	07 04 e0    	cp0.b     w7
    12b6:	f7 ff 3a    	bra       NZ, 0x12a6 <.L63>
    12b8:	03 00 37    	bra       0x12c0 <.L64>

000012ba <.L67>:
    12ba:	00 03 eb    	clr.w     w6

000012bc <.L44>:
    12bc:	86 8f 52    	sub.w     w5, w6, [w15]
    12be:	19 00 36    	bra       LEU, 0x12f2 <.L42>

000012c0 <.L64>:
    12c0:	86 03 42    	add.w     w4, w6, w7
    12c2:	00 00 eb    	clr.w     w0
    12c4:	03 00 e0    	cp0.w     w3
    12c6:	0e 00 32    	bra       Z, 0x12e4 <.L65>
    12c8:	06 84 52    	sub.w     w5, w6, w8
    12ca:	0c 00 32    	bra       Z, 0x12e4 <.L65>
    12cc:	92 40 78    	mov.b     [w2], w1
    12ce:	01 04 e0    	cp0.b     w1
    12d0:	09 00 32    	bra       Z, 0x12e4 <.L65>

000012d2 <.L66>:
    12d2:	81 5b 78    	mov.b     w1, [w7++]
    12d4:	00 00 e8    	inc.w     w0, w0
    12d6:	80 8f 51    	sub.w     w3, w0, [w15]
    12d8:	05 00 36    	bra       LEU, 0x12e4 <.L65>
    12da:	80 0f 54    	sub.w     w8, w0, [w15]
    12dc:	03 00 36    	bra       LEU, 0x12e4 <.L65>
    12de:	d2 40 78    	mov.b     [++w2], w1
    12e0:	01 04 e0    	cp0.b     w1
    12e2:	f7 ff 3a    	bra       NZ, 0x12d2 <.L66>

000012e4 <.L65>:
    12e4:	06 03 40    	add.w     w0, w6, w6
    12e6:	01 00 37    	bra       0x12ea <.L51>

000012e8 <.L70>:
    12e8:	00 03 eb    	clr.w     w6

000012ea <.L51>:
    12ea:	85 0f 53    	sub.w     w6, w5, [w15]
    12ec:	02 00 31    	bra       C, 0x12f2 <.L42>

000012ee <.L62>:
    12ee:	00 40 eb    	clr.b     w0
    12f0:	00 72 7b    	mov.b     w0, [w4+w6]

000012f2 <.L42>:
    12f2:	4f 04 be    	mov.d     [--w15], w8
    12f4:	00 00 06    	return    

000012f6 <_FCI_SCOPY>:
    12f6:	01 00 e0    	cp0.w     w1
    12f8:	11 00 32    	bra       Z, 0x131c <.L86>
    12fa:	03 00 e0    	cp0.w     w3
    12fc:	16 00 32    	bra       Z, 0x132a <.L81>
    12fe:	90 42 78    	mov.b     [w0], w5
    1300:	05 04 e0    	cp0.b     w5
    1302:	0e 00 32    	bra       Z, 0x1320 <.L87>
    1304:	02 03 78    	mov.w     w2, w6
    1306:	00 02 eb    	clr.w     w4

00001308 <.L84>:
    1308:	05 5b 78    	mov.b     w5, [w6++]
    130a:	04 02 e8    	inc.w     w4, w4
    130c:	84 8f 50    	sub.w     w1, w4, [w15]
    130e:	09 00 36    	bra       LEU, 0x1322 <.L82>
    1310:	84 8f 51    	sub.w     w3, w4, [w15]
    1312:	0b 00 36    	bra       LEU, 0x132a <.L81>
    1314:	d0 42 78    	mov.b     [++w0], w5
    1316:	05 04 e0    	cp0.b     w5
    1318:	f7 ff 3a    	bra       NZ, 0x1308 <.L84>
    131a:	05 00 37    	bra       0x1326 <.L85>

0000131c <.L86>:
    131c:	00 02 eb    	clr.w     w4
    131e:	01 00 37    	bra       0x1322 <.L82>

00001320 <.L87>:
    1320:	00 02 eb    	clr.w     w4

00001322 <.L82>:
    1322:	84 8f 51    	sub.w     w3, w4, [w15]
    1324:	02 00 36    	bra       LEU, 0x132a <.L81>

00001326 <.L85>:
    1326:	00 40 eb    	clr.b     w0
    1328:	00 71 7a    	mov.b     w0, [w2+w4]

0000132a <.L81>:
    132a:	00 00 06    	return    

0000132c <_FCI_FLOAT_TO_STRING>:
    132c:	f8 87 47    	add.w     w15, #0x18, w15
    132e:	88 9f be    	mov.d     w8, [w15++]
    1330:	8a 9f be    	mov.d     w10, [w15++]
    1332:	8c 9f be    	mov.d     w12, [w15++]
    1334:	8e 1f 78    	mov.w     w14, [w15++]
    1336:	00 04 be    	mov.d     w0, w8
    1338:	02 05 be    	mov.d     w2, w10
    133a:	d8 b7 9f    	mov.w     w8, [w15-22]
    133c:	e9 b7 9f    	mov.w     w9, [w15-20]
    133e:	fa b7 9f    	mov.w     w10, [w15-18]
    1340:	8b bf 9f    	mov.w     w11, [w15-16]
    1342:	84 46 78    	mov.b     w4, w13
    1344:	c5 b7 9f    	mov.w     w5, [w15-24]
    1346:	06 07 78    	mov.w     w6, w14
    1348:	0d 04 e0    	cp0.b     w13
    134a:	11 00 32    	bra       Z, 0x136e <.L101>
    134c:	60 44 b8    	mul.uu    w8, #0x0, w8
    134e:	0a 00 20    	mov.w     #0x0, w10
    1350:	0b fe 23    	mov.w     #0x3fe0, w11
    1352:	00 46 eb    	clr.b     w12
    1354:	08 00 be    	mov.d     w8, w0
    1356:	0a 01 be    	mov.d     w10, w2

00001358 <.L90>:
    1358:	a4 99 29    	mov.w     #0x999a, w4
    135a:	95 99 29    	mov.w     #0x9999, w5
    135c:	96 99 29    	mov.w     #0x9999, w6
    135e:	97 fb 23    	mov.w     #0x3fb9, w7
    1360:	43 f7 07    	rcall     0x1e8 <___muldf3> <.libm>
    1362:	0c 46 e8    	inc.b     w12, w12
    1364:	8c cf 56    	sub.b     w13, w12, [w15]
    1366:	f8 ff 3e    	bra       GTU, 0x1358 <.L90>
    1368:	00 04 be    	mov.d     w0, w8
    136a:	02 05 be    	mov.d     w2, w10
    136c:	03 00 37    	bra       0x1374 <.L89>

0000136e <.L101>:
    136e:	60 44 b8    	mul.uu    w8, #0x0, w8
    1370:	0a 00 20    	mov.w     #0x0, w10
    1372:	0b fe 23    	mov.w     #0x3fe0, w11

00001374 <.L89>:
    1374:	60 22 b8    	mul.uu    w4, #0x0, w4
    1376:	60 33 b8    	mul.uu    w6, #0x0, w6
    1378:	5f b0 97    	mov.w     [w15-22], w0
    137a:	ef b0 97    	mov.w     [w15-20], w1
    137c:	7f b1 97    	mov.w     [w15-18], w2
    137e:	8f b9 97    	mov.w     [w15-16], w3
    1380:	a8 f7 07    	rcall     0x2d2 <___eqdf2> <___ledf2> <___ltdf2> <.libm>
    1382:	00 06 eb    	clr.w     w12
    1384:	00 00 e0    	cp0.w     w0
    1386:	0d 00 3d    	bra       GE, 0x13a2 <.L91>
    1388:	5f b0 97    	mov.w     [w15-22], w0
    138a:	ef b0 97    	mov.w     [w15-20], w1
    138c:	7f b1 97    	mov.w     [w15-18], w2
    138e:	8f b9 97    	mov.w     [w15-16], w3
    1390:	03 f0 a2    	btg.w     w3, #0xf
    1392:	d0 b7 9f    	mov.w     w0, [w15-22]
    1394:	e1 b7 9f    	mov.w     w1, [w15-20]
    1396:	f2 b7 9f    	mov.w     w2, [w15-18]
    1398:	83 bf 9f    	mov.w     w3, [w15-16]
    139a:	d0 c2 b3    	mov.b     #0x2d, w0
    139c:	cf b0 97    	mov.w     [w15-24], w1
    139e:	80 48 78    	mov.b     w0, [w1]
    13a0:	1c 00 20    	mov.w     #0x1, w12

000013a2 <.L91>:
    13a2:	08 02 be    	mov.d     w8, w4
    13a4:	0a 03 be    	mov.d     w10, w6
    13a6:	5f b0 97    	mov.w     [w15-22], w0
    13a8:	ef b0 97    	mov.w     [w15-20], w1
    13aa:	7f b1 97    	mov.w     [w15-18], w2
    13ac:	8f b9 97    	mov.w     [w15-16], w3
    13ae:	96 f7 07    	rcall     0x2dc <___adddf3> <.libm>
    13b0:	00 04 be    	mov.d     w0, w8
    13b2:	02 05 be    	mov.d     w2, w10
    13b4:	10 f8 07    	rcall     0x3d6 <_floor> <_floorl> <.libm>
    13b6:	00 02 be    	mov.d     w0, w4
    13b8:	02 03 be    	mov.d     w2, w6
    13ba:	d4 b7 9f    	mov.w     w4, [w15-22]
    13bc:	e5 b7 9f    	mov.w     w5, [w15-20]
    13be:	f6 b7 9f    	mov.w     w6, [w15-18]
    13c0:	87 bf 9f    	mov.w     w7, [w15-16]
    13c2:	12 f8 07    	rcall     0x3e8 <___fixdfsi> <.libm>
    13c4:	c3 00 20    	mov.w     #0xc, w3
    13c6:	c2 fd 2f    	mov.w     #0xffdc, w2
    13c8:	0f 01 41    	add.w     w2, w15, w2
    13ca:	b9 fe 07    	rcall     0x113e <_FCI_TOSTRING>
    13cc:	cf d8 97    	mov.b     [w15-36], w1
    13ce:	01 04 e0    	cp0.b     w1
    13d0:	0d 00 32    	bra       Z, 0x13ec <.L93>
    13d2:	00 40 eb    	clr.b     w0
    13d4:	4f b1 97    	mov.w     [w15-24], w2

000013d6 <.L95>:
    13d6:	8c 0f 57    	sub.w     w14, w12, [w15]
    13d8:	02 00 36    	bra       LEU, 0x13de <.L94>
    13da:	01 71 7e    	mov.b     w1, [w2+w12]
    13dc:	0c 06 e8    	inc.w     w12, w12

000013de <.L94>:
    13de:	00 40 e8    	inc.b     w0, w0
    13e0:	80 80 fb    	ze        w0, w1
    13e2:	c5 fd 2f    	mov.w     #0xffdc, w5
    13e4:	8f 82 42    	add.w     w5, w15, w5
    13e6:	e5 c0 78    	mov.b     [w5+w1], w1
    13e8:	01 04 e0    	cp0.b     w1
    13ea:	f5 ff 3a    	bra       NZ, 0x13d6 <.L95>

000013ec <.L93>:
    13ec:	8c 0f 57    	sub.w     w14, w12, [w15]
    13ee:	04 00 36    	bra       LEU, 0x13f8 <.L96>
    13f0:	e0 c2 b3    	mov.b     #0x2e, w0
    13f2:	4f b3 97    	mov.w     [w15-24], w6
    13f4:	00 73 7e    	mov.b     w0, [w6+w12]
    13f6:	0c 06 e8    	inc.w     w12, w12

000013f8 <.L96>:
    13f8:	0d 04 e0    	cp0.b     w13
    13fa:	2a 00 32    	bra       Z, 0x1450 <.L103>
    13fc:	8e 0f 56    	sub.w     w12, w14, [w15]
    13fe:	2e 00 31    	bra       C, 0x145c <.L98>
    1400:	5f b2 97    	mov.w     [w15-22], w4
    1402:	ef b2 97    	mov.w     [w15-20], w5
    1404:	7f b3 97    	mov.w     [w15-18], w6
    1406:	8f bb 97    	mov.w     [w15-16], w7
    1408:	08 00 be    	mov.d     w8, w0
    140a:	0a 01 be    	mov.d     w10, w2
    140c:	19 f8 07    	rcall     0x440 <___subdf3> <.libm>
    140e:	cf b3 97    	mov.w     [w15-24], w7
    1410:	8c 85 43    	add.w     w7, w12, w11
    1412:	0c 05 78    	mov.w     w12, w10
    1414:	02 00 37    	bra       0x141a <.L99>

00001416 <.L100>:
    1416:	8a 0f 57    	sub.w     w14, w10, [w15]
    1418:	21 00 36    	bra       LEU, 0x145c <.L98>

0000141a <.L99>:
    141a:	60 22 b8    	mul.uu    w4, #0x0, w4
    141c:	06 00 20    	mov.w     #0x0, w6
    141e:	47 02 24    	mov.w     #0x4024, w7
    1420:	e3 f6 07    	rcall     0x1e8 <___muldf3> <.libm>
    1422:	00 02 be    	mov.d     w0, w4
    1424:	02 03 be    	mov.d     w2, w6
    1426:	d4 b7 9f    	mov.w     w4, [w15-22]
    1428:	e5 b7 9f    	mov.w     w5, [w15-20]
    142a:	f6 b7 9f    	mov.w     w6, [w15-18]
    142c:	87 bf 9f    	mov.w     w7, [w15-16]
    142e:	dc f7 07    	rcall     0x3e8 <___fixdfsi> <.libm>
    1430:	00 04 be    	mov.d     w0, w8
    1432:	08 f8 07    	rcall     0x444 <___floatsidf> <.libm>
    1434:	00 02 be    	mov.d     w0, w4
    1436:	02 03 be    	mov.d     w2, w6
    1438:	5f b0 97    	mov.w     [w15-22], w0
    143a:	ef b0 97    	mov.w     [w15-20], w1
    143c:	7f b1 97    	mov.w     [w15-18], w2
    143e:	8f b9 97    	mov.w     [w15-16], w3
    1440:	ff f7 07    	rcall     0x440 <___subdf3> <.libm>
    1442:	05 c3 b3    	mov.b     #0x30, w5
    1444:	85 5d 44    	add.b     w8, w5, [w11++]
    1446:	0a 05 e8    	inc.w     w10, w10
    1448:	0c 42 55    	sub.b     w10, w12, w4
    144a:	8d 4f 52    	sub.b     w4, w13, [w15]
    144c:	e4 ff 39    	bra       NC, 0x1416 <.L100>
    144e:	01 00 37    	bra       0x1452 <.L97>

00001450 <.L103>:
    1450:	0c 05 78    	mov.w     w12, w10

00001452 <.L97>:
    1452:	8a 0f 57    	sub.w     w14, w10, [w15]
    1454:	03 00 36    	bra       LEU, 0x145c <.L98>
    1456:	00 40 eb    	clr.b     w0
    1458:	4f b3 97    	mov.w     [w15-24], w6
    145a:	00 73 7d    	mov.b     w0, [w6+w10]

0000145c <.L98>:
    145c:	4f b0 97    	mov.w     [w15-24], w0
    145e:	4f 07 78    	mov.w     [--w15], w14
    1460:	4f 06 be    	mov.d     [--w15], w12
    1462:	4f 05 be    	mov.d     [--w15], w10
    1464:	4f 04 be    	mov.d     [--w15], w8
    1466:	8f 01 b1    	sub.w     #0x18, w15
    1468:	00 00 06    	return    

0000146a <_FC_CAL_Port_Out__x>:
    146a:	01 01 61    	and.w     w2, w1, w2
    146c:	81 80 ea    	com.w     w1, w1
    146e:	90 80 60    	and.w     w1, [w0], w1
    1470:	01 08 71    	ior.w     w2, w1, [w0]
    1472:	00 00 06    	return    

00001474 <_FC_CAL_Port_Out_DDR__x>:
    1474:	02 82 ea    	com.w     w2, w4
    1476:	91 08 62    	and.w     w4, [w1], [w1]
    1478:	02 81 61    	and.w     w3, w2, w2
    147a:	10 02 62    	and.w     w4, [w0], w4
    147c:	04 08 71    	ior.w     w2, w4, [w0]
    147e:	00 00 06    	return    

00001480 <_FC_CAL_Port_In__x>:
    1480:	90 80 60    	and.w     w1, [w0], w1
    1482:	02 81 fb    	ze        w2, w2
    1484:	02 08 de    	lsr.w     w1, w2, w0
    1486:	00 00 06    	return    

00001488 <_FC_CAL_Port_In_DDR__x>:
    1488:	91 08 71    	ior.w     w2, [w1], [w1]
    148a:	10 01 61    	and.w     w2, [w0], w2
    148c:	03 80 fb    	ze        w3, w0
    148e:	00 10 de    	lsr.w     w2, w0, w0
    1490:	00 00 06    	return    

00001492 <_Wdt_Delay_Ms>:
    1492:	88 9f be    	mov.d     w8, [w15++]
    1494:	80 44 78    	mov.b     w0, w9
    1496:	09 04 e0    	cp0.b     w9
    1498:	08 00 32    	bra       Z, 0x14aa <.L110>
    149a:	00 44 eb    	clr.b     w8

0000149c <.L112>:
    149c:	00 60 fe    	clrwdt    
    149e:	80 32 27    	mov.w     #0x7328, w0
    14a0:	01 00 20    	mov.w     #0x0, w1
    14a2:	4c f6 07    	rcall     0x13c <___delay32> <.init>
    14a4:	08 44 e8    	inc.b     w8, w8
    14a6:	88 cf 54    	sub.b     w9, w8, [w15]
    14a8:	f9 ff 3e    	bra       GTU, 0x149c <.L112>

000014aa <.L110>:
    14aa:	4f 04 be    	mov.d     [--w15], w8
    14ac:	00 00 06    	return    

000014ae <_Wdt_Delay_S>:
    14ae:	88 9f be    	mov.d     w8, [w15++]
    14b0:	8a 1f 78    	mov.w     w10, [w15++]
    14b2:	00 45 78    	mov.b     w0, w10
    14b4:	80 44 eb    	clr.b     w9
    14b6:	0a 04 e0    	cp0.b     w10
    14b8:	0a 00 3a    	bra       NZ, 0x14ce <.L117>
    14ba:	0b 00 37    	bra       0x14d2 <.L113>

000014bc <.L116>:
    14bc:	10 c0 b3    	mov.b     #0x1, w0
    14be:	e9 ff 07    	rcall     0x1492 <_Wdt_Delay_Ms>
    14c0:	08 04 e8    	inc.w     w8, w8
    14c2:	70 3e 20    	mov.w     #0x3e7, w0
    14c4:	80 0f 54    	sub.w     w8, w0, [w15]
    14c6:	fa ff 3a    	bra       NZ, 0x14bc <.L116>
    14c8:	89 44 e8    	inc.b     w9, w9
    14ca:	89 4f 55    	sub.b     w10, w9, [w15]
    14cc:	02 00 36    	bra       LEU, 0x14d2 <.L113>

000014ce <.L117>:
    14ce:	00 04 eb    	clr.w     w8
    14d0:	f5 ff 37    	bra       0x14bc <.L116>

000014d2 <.L113>:
    14d2:	4f 05 78    	mov.w     [--w15], w10
    14d4:	4f 04 be    	mov.d     [--w15], w8
    14d6:	00 00 06    	return    

000014d8 <_FCI_DELAYINT_US>:
    14d8:	88 1f 78    	mov.w     w8, [w15++]
    14da:	00 04 78    	mov.w     w0, w8
    14dc:	f0 0f 20    	mov.w     #0xff, w0
    14de:	80 0f 54    	sub.w     w8, w0, [w15]
    14e0:	07 00 36    	bra       LEU, 0x14f0 <.L119>

000014e2 <.L120>:
    14e2:	30 ce 21    	mov.w     #0x1ce3, w0
    14e4:	01 00 20    	mov.w     #0x0, w1
    14e6:	2a f6 07    	rcall     0x13c <___delay32> <.init>
    14e8:	f8 0f b1    	sub.w     #0xff, w8
    14ea:	f0 0f 20    	mov.w     #0xff, w0
    14ec:	80 0f 54    	sub.w     w8, w0, [w15]
    14ee:	f9 ff 3e    	bra       GTU, 0x14e2 <.L120>

000014f0 <.L119>:
    14f0:	08 00 e0    	cp0.w     w8
    14f2:	03 00 32    	bra       Z, 0x14fa <.L118>
    14f4:	08 80 fb    	ze        w8, w0
    14f6:	7d 00 b8    	mul.uu    w0, #0x1d, w0
    14f8:	21 f6 07    	rcall     0x13c <___delay32> <.init>

000014fa <.L118>:
    14fa:	4f 04 78    	mov.w     [--w15], w8
    14fc:	00 00 06    	return    

000014fe <_FCI_DELAYINT_MS>:
    14fe:	88 1f 78    	mov.w     w8, [w15++]
    1500:	00 04 78    	mov.w     w0, w8
    1502:	f0 0f 20    	mov.w     #0xff, w0
    1504:	80 0f 54    	sub.w     w8, w0, [w15]
    1506:	07 00 36    	bra       LEU, 0x1516 <.L123>

00001508 <.L124>:
    1508:	80 4d 2b    	mov.w     #0xb4d8, w0
    150a:	21 07 20    	mov.w     #0x72, w1
    150c:	17 f6 07    	rcall     0x13c <___delay32> <.init>
    150e:	f8 0f b1    	sub.w     #0xff, w8
    1510:	f0 0f 20    	mov.w     #0xff, w0
    1512:	80 0f 54    	sub.w     w8, w0, [w15]
    1514:	f9 ff 3e    	bra       GTU, 0x1508 <.L124>

00001516 <.L123>:
    1516:	08 00 e0    	cp0.w     w8
    1518:	04 00 32    	bra       Z, 0x1522 <.L122>
    151a:	08 84 fb    	ze        w8, w8
    151c:	80 32 27    	mov.w     #0x7328, w0
    151e:	00 40 b8    	mul.uu    w8, w0, w0
    1520:	0d f6 07    	rcall     0x13c <___delay32> <.init>

00001522 <.L122>:
    1522:	4f 04 78    	mov.w     [--w15], w8
    1524:	00 00 06    	return    

00001526 <_FCI_DELAYINTWDT_MS>:
    1526:	88 1f 78    	mov.w     w8, [w15++]
    1528:	00 04 78    	mov.w     w0, w8
    152a:	f0 0f 20    	mov.w     #0xff, w0
    152c:	80 0f 54    	sub.w     w8, w0, [w15]
    152e:	06 00 36    	bra       LEU, 0x153c <.L127>

00001530 <.L128>:
    1530:	00 c0 eb    	setm.b    w0
    1532:	af ff 07    	rcall     0x1492 <_Wdt_Delay_Ms>
    1534:	f8 0f b1    	sub.w     #0xff, w8
    1536:	f0 0f 20    	mov.w     #0xff, w0
    1538:	80 0f 54    	sub.w     w8, w0, [w15]
    153a:	fa ff 3e    	bra       GTU, 0x1530 <.L128>

0000153c <.L127>:
    153c:	08 00 e0    	cp0.w     w8
    153e:	02 00 32    	bra       Z, 0x1544 <.L126>
    1540:	08 40 78    	mov.b     w8, w0
    1542:	a7 ff 07    	rcall     0x1492 <_Wdt_Delay_Ms>

00001544 <.L126>:
    1544:	4f 04 78    	mov.w     [--w15], w8
    1546:	00 00 06    	return    

00001548 <_FCI_DELAYINT_S>:
    1548:	88 1f 78    	mov.w     w8, [w15++]
    154a:	00 04 78    	mov.w     w0, w8
    154c:	f0 0f 20    	mov.w     #0xff, w0
    154e:	80 0f 54    	sub.w     w8, w0, [w15]
    1550:	07 00 36    	bra       LEU, 0x1560 <.L131>

00001552 <.L132>:
    1552:	00 bc 26    	mov.w     #0x6bc0, w0
    1554:	21 01 2c    	mov.w     #0xc012, w1
    1556:	f2 f5 07    	rcall     0x13c <___delay32> <.init>
    1558:	f8 0f b1    	sub.w     #0xff, w8
    155a:	f0 0f 20    	mov.w     #0xff, w0
    155c:	80 0f 54    	sub.w     w8, w0, [w15]
    155e:	f9 ff 3e    	bra       GTU, 0x1552 <.L132>

00001560 <.L131>:
    1560:	08 00 e0    	cp0.w     w8
    1562:	08 00 32    	bra       Z, 0x1574 <.L130>
    1564:	08 80 fb    	ze        w8, w0
    1566:	80 00 eb    	clr.w     w1
    1568:	12 1c 20    	mov.w     #0x1c1, w2
    156a:	02 81 b9    	mul.ss    w0, w2, w2
    156c:	04 44 2d    	mov.w     #0xd440, w4
    156e:	04 00 b8    	mul.uu    w0, w4, w0
    1570:	81 00 41    	add.w     w2, w1, w1
    1572:	e4 f5 07    	rcall     0x13c <___delay32> <.init>

00001574 <.L130>:
    1574:	4f 04 78    	mov.w     [--w15], w8
    1576:	00 00 06    	return    

00001578 <_FCI_DELAYINTWDT_S>:
    1578:	88 1f 78    	mov.w     w8, [w15++]
    157a:	00 04 78    	mov.w     w0, w8
    157c:	f0 0f 20    	mov.w     #0xff, w0
    157e:	80 0f 54    	sub.w     w8, w0, [w15]
    1580:	06 00 36    	bra       LEU, 0x158e <.L135>

00001582 <.L136>:
    1582:	00 c0 eb    	setm.b    w0
    1584:	94 ff 07    	rcall     0x14ae <_Wdt_Delay_S>
    1586:	f8 0f b1    	sub.w     #0xff, w8
    1588:	f0 0f 20    	mov.w     #0xff, w0
    158a:	80 0f 54    	sub.w     w8, w0, [w15]
    158c:	fa ff 3e    	bra       GTU, 0x1582 <.L136>

0000158e <.L135>:
    158e:	08 00 e0    	cp0.w     w8
    1590:	02 00 32    	bra       Z, 0x1596 <.L134>
    1592:	08 40 78    	mov.b     w8, w0
    1594:	8c ff 07    	rcall     0x14ae <_Wdt_Delay_S>

00001596 <.L134>:
    1596:	4f 04 78    	mov.w     [--w15], w8
    1598:	00 00 06    	return    

0000159a <_FC_CAL_ADC_Enable>:
    159a:	64 2c 20    	mov.w     #0x2c6, w4
    159c:	e4 72 88    	mov.w     w4, 0xe5c
    159e:	14 43 78    	mov.b     [w4], w6
    15a0:	86 82 fb    	ze        w6, w5
    15a2:	c5 72 88    	mov.w     w5, 0xe58
    15a4:	00 80 fb    	ze        w0, w0
    15a6:	15 00 20    	mov.w     #0x1, w5
    15a8:	80 2a dd    	sl.w      w5, w0, w5
    15aa:	05 4a 73    	ior.b     w6, w5, [w4]
    15ac:	a0 22 ef    	clr.w     0x2a0
    15ae:	a2 22 ef    	clr.w     0x2a2
    15b0:	a4 22 ef    	clr.w     0x2a4
    15b2:	a6 22 ef    	clr.w     0x2a6
    15b4:	85 82 ea    	com.w     w5, w5
    15b6:	80 02 fd    	exch      w0, w5
    15b8:	a8 22 b6    	and.w     0x2a8
    15ba:	80 02 fd    	exch      w0, w5
    15bc:	6f 00 60    	and.w     w0, #0xf, w0
    15be:	30 15 88    	mov.w     w0, 0x2a6
    15c0:	02 04 e0    	cp0.b     w2
    15c2:	03 00 3a    	bra       NZ, 0x15ca <.L139>
    15c4:	f0 ff 21    	mov.w     #0x1fff, w0
    15c6:	a2 22 b6    	and.w     0x2a2
    15c8:	01 00 37    	bra       0x15cc <.L140>

000015ca <.L139>:
    15ca:	a3 a2 a8    	bset.b    0x2a3, #0x5

000015cc <.L140>:
    15cc:	a4 22 ef    	clr.w     0x2a4
    15ce:	01 68 a3    	btst.z    w1, #0x6
    15d0:	02 00 32    	bra       Z, 0x15d6 <.L141>
    15d2:	a4 e2 a8    	bset.b    0x2a4, #0x7
    15d4:	02 00 37    	bra       0x15da <.L142>

000015d6 <.L141>:
    15d6:	f1 03 b2    	and.w     #0x3f, w1
    15d8:	21 15 88    	mov.w     w1, 0x2a4

000015da <.L142>:
    15da:	a1 e2 a8    	bset.b    0x2a1, #0x7
    15dc:	a0 22 a8    	bset.b    0x2a0, #0x1
    15de:	03 80 fb    	ze        w3, w0
    15e0:	7d 00 b8    	mul.uu    w0, #0x1d, w0
    15e2:	ac f5 07    	rcall     0x13c <___delay32> <.init>
    15e4:	a0 22 a9    	bclr.b    0x2a0, #0x1
    15e6:	00 00 06    	return    

000015e8 <_FC_CAL_ADC_Sample>:
    15e8:	88 1f 78    	mov.w     w8, [w15++]

000015ea <.L144>:
    15ea:	a0 02 ab    	btst.b    0x2a0, #0x0
    15ec:	fe ff 32    	bra       Z, 0x15ea <.L144>
    15ee:	00 04 e0    	cp0.b     w0
    15f0:	02 00 32    	bra       Z, 0x15f6 <.L145>
    15f2:	08 14 80    	mov.w     0x280, w8
    15f4:	02 00 37    	bra       0x15fa <.L146>

000015f6 <.L145>:
    15f6:	08 14 80    	mov.w     0x280, w8
    15f8:	44 44 de    	lsr.w     w8, #0x4, w8

000015fa <.L146>:
    15fa:	a0 22 a8    	bset.b    0x2a0, #0x1
    15fc:	d0 01 20    	mov.w     #0x1d, w0
    15fe:	01 00 20    	mov.w     #0x0, w1
    1600:	9d f5 07    	rcall     0x13c <___delay32> <.init>
    1602:	a0 22 a9    	bclr.b    0x2a0, #0x1
    1604:	08 00 78    	mov.w     w8, w0
    1606:	4f 04 78    	mov.w     [--w15], w8
    1608:	00 00 06    	return    

0000160a <_FC_CAL_ADC_Disable>:
    160a:	e0 72 80    	mov.w     0xe5c, w0
    160c:	81 e5 20    	mov.w     #0xe58, w1
    160e:	91 40 78    	mov.b     [w1], w1
    1610:	01 48 78    	mov.b     w1, [w0]
    1612:	a1 e2 a9    	bclr.b    0x2a1, #0x7
    1614:	a8 a2 ef    	setm.w    0x2a8
    1616:	00 00 06    	return    

00001618 <_FC_CAL_SPI_Master_Init_1>:
    1618:	de 62 a9    	bclr.b    0x2de, #0x3
    161a:	e2 62 a8    	bset.b    0x2e2, #0x3
    161c:	de 42 a8    	bset.b    0x2de, #0x2
    161e:	f0 fb 2f    	mov.w     #0xffbf, w0
    1620:	de 22 b6    	and.w     0x2de
    1622:	e2 22 b6    	and.w     0x2e2
    1624:	b0 01 20    	mov.w     #0x1b, w0
    1626:	10 11 88    	mov.w     w0, 0x222
    1628:	22 a2 a8    	bset.b    0x222, #0x5
    162a:	22 c2 a9    	bclr.b    0x222, #0x6
    162c:	23 02 a9    	bclr.b    0x223, #0x0
    162e:	23 22 a9    	bclr.b    0x223, #0x1
    1630:	20 c2 a9    	bclr.b    0x220, #0x6
    1632:	21 e2 a8    	bset.b    0x221, #0x7
    1634:	00 00 06    	return    

00001636 <_FC_CAL_SPI_Master_Uninit_1>:
    1636:	21 e2 a9    	bclr.b    0x221, #0x7
    1638:	de 62 a8    	bset.b    0x2de, #0x3
    163a:	de 42 a8    	bset.b    0x2de, #0x2
    163c:	de c2 a8    	bset.b    0x2de, #0x6
    163e:	00 00 06    	return    

00001640 <_FC_CAL_SPI_Master_Byte_1>:
    1640:	21 11 80    	mov.w     0x224, w1
    1642:	00 80 fb    	ze        w0, w0
    1644:	20 11 88    	mov.w     w0, 0x224

00001646 <.L151>:
    1646:	20 02 ab    	btst.b    0x220, #0x0
    1648:	fe ff 32    	bra       Z, 0x1646 <.L151>
    164a:	20 11 80    	mov.w     0x224, w0
    164c:	00 00 06    	return    

0000164e <_FC_CAL_SPI_SetPrescaler_1>:
    164e:	94 ee b7    	mov.b     WREG, 0xe94
    1650:	00 04 e0    	cp0.b     w0
    1652:	03 00 3a    	bra       NZ, 0x165a <.L153>
    1654:	b0 c1 b3    	mov.b     #0x1b, w0
    1656:	94 ee b7    	mov.b     WREG, 0xe94
    1658:	48 00 37    	bra       0x16ea <.L154>

0000165a <.L153>:
    165a:	e1 4f 50    	sub.b     w0, #0x1, [w15]
    165c:	03 00 3a    	bra       NZ, 0x1664 <.L155>
    165e:	e0 c1 b3    	mov.b     #0x1e, w0
    1660:	94 ee b7    	mov.b     WREG, 0xe94
    1662:	43 00 37    	bra       0x16ea <.L154>

00001664 <.L155>:
    1664:	e2 4f 50    	sub.b     w0, #0x2, [w15]
    1666:	03 00 3a    	bra       NZ, 0x166e <.L156>
    1668:	b0 c0 b3    	mov.b     #0xb, w0
    166a:	94 ee b7    	mov.b     WREG, 0xe94
    166c:	3e 00 37    	bra       0x16ea <.L154>

0000166e <.L156>:
    166e:	e3 4f 50    	sub.b     w0, #0x3, [w15]
    1670:	02 00 3a    	bra       NZ, 0x1676 <.L157>
    1672:	94 ee b7    	mov.b     WREG, 0xe94
    1674:	3a 00 37    	bra       0x16ea <.L154>

00001676 <.L157>:
    1676:	e4 4f 50    	sub.b     w0, #0x4, [w15]
    1678:	03 00 3a    	bra       NZ, 0x1680 <.L158>
    167a:	60 c1 b3    	mov.b     #0x16, w0
    167c:	94 ee b7    	mov.b     WREG, 0xe94
    167e:	35 00 37    	bra       0x16ea <.L154>

00001680 <.L158>:
    1680:	e5 4f 50    	sub.b     w0, #0x5, [w15]
    1682:	03 00 3a    	bra       NZ, 0x168a <.L159>
    1684:	d0 c1 b3    	mov.b     #0x1d, w0
    1686:	94 ee b7    	mov.b     WREG, 0xe94
    1688:	30 00 37    	bra       0x16ea <.L154>

0000168a <.L159>:
    168a:	e6 4f 50    	sub.b     w0, #0x6, [w15]
    168c:	03 00 3a    	bra       NZ, 0x1694 <.L160>
    168e:	e0 c0 b3    	mov.b     #0xe, w0
    1690:	94 ee b7    	mov.b     WREG, 0xe94
    1692:	2b 00 37    	bra       0x16ea <.L154>

00001694 <.L160>:
    1694:	e7 4f 50    	sub.b     w0, #0x7, [w15]
    1696:	03 00 3a    	bra       NZ, 0x169e <.L161>
    1698:	a0 c0 b3    	mov.b     #0xa, w0
    169a:	94 ee b7    	mov.b     WREG, 0xe94
    169c:	26 00 37    	bra       0x16ea <.L154>

0000169e <.L161>:
    169e:	e8 4f 50    	sub.b     w0, #0x8, [w15]
    16a0:	03 00 3a    	bra       NZ, 0x16a8 <.L162>
    16a2:	60 c0 b3    	mov.b     #0x6, w0
    16a4:	94 ee b7    	mov.b     WREG, 0xe94
    16a6:	21 00 37    	bra       0x16ea <.L154>

000016a8 <.L162>:
    16a8:	e9 4f 50    	sub.b     w0, #0x9, [w15]
    16aa:	03 00 3a    	bra       NZ, 0x16b2 <.L163>
    16ac:	90 c1 b3    	mov.b     #0x19, w0
    16ae:	94 ee b7    	mov.b     WREG, 0xe94
    16b0:	1c 00 37    	bra       0x16ea <.L154>

000016b2 <.L163>:
    16b2:	ea 4f 50    	sub.b     w0, #0xa, [w15]
    16b4:	03 00 3a    	bra       NZ, 0x16bc <.L164>
    16b6:	50 c1 b3    	mov.b     #0x15, w0
    16b8:	94 ee b7    	mov.b     WREG, 0xe94
    16ba:	17 00 37    	bra       0x16ea <.L154>

000016bc <.L164>:
    16bc:	eb 4f 50    	sub.b     w0, #0xb, [w15]
    16be:	03 00 3a    	bra       NZ, 0x16c6 <.L165>
    16c0:	c0 c1 b3    	mov.b     #0x1c, w0
    16c2:	94 ee b7    	mov.b     WREG, 0xe94
    16c4:	12 00 37    	bra       0x16ea <.L154>

000016c6 <.L165>:
    16c6:	ec 4f 50    	sub.b     w0, #0xc, [w15]
    16c8:	03 00 3a    	bra       NZ, 0x16d0 <.L166>
    16ca:	80 c1 b3    	mov.b     #0x18, w0
    16cc:	94 ee b7    	mov.b     WREG, 0xe94
    16ce:	0d 00 37    	bra       0x16ea <.L154>

000016d0 <.L166>:
    16d0:	ed 4f 50    	sub.b     w0, #0xd, [w15]
    16d2:	03 00 3a    	bra       NZ, 0x16da <.L167>
    16d4:	40 c1 b3    	mov.b     #0x14, w0
    16d6:	94 ee b7    	mov.b     WREG, 0xe94
    16d8:	08 00 37    	bra       0x16ea <.L154>

000016da <.L167>:
    16da:	ee 4f 50    	sub.b     w0, #0xe, [w15]
    16dc:	03 00 3a    	bra       NZ, 0x16e4 <.L168>
    16de:	00 c1 b3    	mov.b     #0x10, w0
    16e0:	94 ee b7    	mov.b     WREG, 0xe94
    16e2:	03 00 37    	bra       0x16ea <.L154>

000016e4 <.L168>:
    16e4:	ef 4f 50    	sub.b     w0, #0xf, [w15]
    16e6:	01 00 3a    	bra       NZ, 0x16ea <.L154>
    16e8:	94 6e ef    	clr.b     0xe94

000016ea <.L154>:
    16ea:	21 e2 a9    	bclr.b    0x221, #0x7
    16ec:	00 fe 2f    	mov.w     #0xffe0, w0
    16ee:	22 22 b6    	and.w     0x222
    16f0:	94 ce bf    	mov.b     0xe94, WREG
    16f2:	7f 00 60    	and.w     w0, #0x1f, w0
    16f4:	22 22 b7    	ior.w     0x222
    16f6:	21 e2 a8    	bset.b    0x221, #0x7
    16f8:	00 00 06    	return    

000016fa <_FC_CAL_SPI_Slave_Init_1>:
    16fa:	00 00 06    	return    

000016fc <_FC_CAL_SPI_Slave_Uninit_1>:
    16fc:	00 00 06    	return    

000016fe <_FC_CAL_SPI_Slave_SetTxData_1>:
    16fe:	00 00 06    	return    

00001700 <_FC_CAL_SPI_Slave_GetRxData_1>:
    1700:	00 00 05    	retlw.w   #0x0, w0

00001702 <_FCD_01531_cal_spi__Prv_TextConsole>:
    1702:	00 00 06    	return    

00001704 <_FCD_06c41_SPI_Master1__SendString>:
    1704:	88 9f be    	mov.d     w8, [w15++]
    1706:	8a 1f 78    	mov.w     w10, [w15++]
    1708:	00 05 78    	mov.w     w0, w10
    170a:	0a 00 78    	mov.w     w10, w0
    170c:	72 fc 07    	rcall     0xff2 <_FCI_GETLENGTH> <.text>
    170e:	80 44 78    	mov.b     w0, w9
    1710:	09 04 e0    	cp0.b     w9
    1712:	06 00 32    	bra       Z, 0x1720 <.L174>
    1714:	0a 04 78    	mov.w     w10, w8

00001716 <.L176>:
    1716:	38 40 78    	mov.b     [w8++], w0
    1718:	93 ff 07    	rcall     0x1640 <_FC_CAL_SPI_Master_Byte_1>
    171a:	0a 40 54    	sub.b     w8, w10, w0
    171c:	80 cf 54    	sub.b     w9, w0, [w15]
    171e:	fb ff 3e    	bra       GTU, 0x1716 <.L176>

00001720 <.L174>:
    1720:	4f 05 78    	mov.w     [--w15], w10
    1722:	4f 04 be    	mov.d     [--w15], w8
    1724:	00 00 06    	return    

00001726 <_FCD_06c41_SPI_Master1__GetString>:
    1726:	02 00 fa    	lnk       #0x2
    1728:	88 9f be    	mov.d     w8, [w15++]
    172a:	8a 1f 78    	mov.w     w10, [w15++]
    172c:	80 04 78    	mov.w     w0, w9
    172e:	01 05 78    	mov.w     w1, w10
    1730:	02 44 78    	mov.b     w2, w8
    1732:	83 ff 9f    	mov.b     w3, [w15-8]
    1734:	8a 01 78    	mov.w     w10, w3
    1736:	09 01 78    	mov.w     w9, w2
    1738:	11 00 20    	mov.w     #0x1, w1
    173a:	00 b7 28    	mov.w     #0x8b70, w0
    173c:	dc fd 07    	rcall     0x12f6 <_FCI_SCOPY>
    173e:	08 04 e0    	cp0.b     w8
    1740:	0c 00 32    	bra       Z, 0x175a <.L177>

00001742 <.L179>:
    1742:	50 c5 b3    	mov.b     #0x55, w0
    1744:	7d ff 07    	rcall     0x1640 <_FC_CAL_SPI_Master_Byte_1>
    1746:	80 ff 9f    	mov.b     w0, [w15-8]
    1748:	45 01 20    	mov.w     #0x14, w5
    174a:	09 02 78    	mov.w     w9, w4
    174c:	13 00 20    	mov.w     #0x1, w3
    174e:	68 81 57    	sub.w     w15, #0x8, w2
    1750:	8a 00 78    	mov.w     w10, w1
    1752:	09 00 78    	mov.w     w9, w0
    1754:	4b fd 07    	rcall     0x11ec <_FCI_SHEAD>
    1756:	08 44 e9    	dec.b     w8, w8
    1758:	f4 ff 3a    	bra       NZ, 0x1742 <.L179>

0000175a <.L177>:
    175a:	4f 05 78    	mov.w     [--w15], w10
    175c:	4f 04 be    	mov.d     [--w15], w8
    175e:	00 80 fa    	ulnk      
    1760:	00 00 06    	return    

00001762 <_FCD_06c41_SPI_Master1__SendChar>:
    1762:	6e ff 37    	bra       0x1640 <_FC_CAL_SPI_Master_Byte_1>

00001764 <_FCD_06c41_SPI_Master1__GetChar>:
    1764:	50 c5 b3    	mov.b     #0x55, w0
    1766:	6c ff 37    	bra       0x1640 <_FC_CAL_SPI_Master_Byte_1>

00001768 <_FCD_06c41_SPI_Master1__UnInitialise>:
    1768:	66 ff 37    	bra       0x1636 <_FC_CAL_SPI_Master_Uninit_1>

0000176a <_FCD_06c41_SPI_Master1__Initialise>:
    176a:	56 ff 37    	bra       0x1618 <_FC_CAL_SPI_Master_Init_1>

0000176c <_FCD_04071_LCD__RawSend>:
    176c:	88 9f be    	mov.d     w8, [w15++]
    176e:	8a 1f 78    	mov.w     w10, [w15++]
    1770:	80 44 78    	mov.b     w0, w9
    1772:	01 45 78    	mov.b     w1, w10
    1774:	e2 ff 2f    	mov.w     #0xfffe, w2
    1776:	20 2d 20    	mov.w     #0x2d2, w0
    1778:	10 08 61    	and.w     w2, [w0], [w0]
    177a:	b0 16 80    	mov.w     0x2d6, w0
    177c:	02 00 60    	and.w     w0, w2, w0
    177e:	a0 16 88    	mov.w     w0, 0x2d4
    1780:	d1 ff 2f    	mov.w     #0xfffd, w1
    1782:	20 2d 20    	mov.w     #0x2d2, w0
    1784:	10 88 60    	and.w     w1, [w0], [w0]
    1786:	b0 16 80    	mov.w     0x2d6, w0
    1788:	01 00 60    	and.w     w0, w1, w0
    178a:	a0 16 88    	mov.w     w0, 0x2d4
    178c:	b1 ff 2f    	mov.w     #0xfffb, w1
    178e:	20 2d 20    	mov.w     #0x2d2, w0
    1790:	10 88 60    	and.w     w1, [w0], [w0]
    1792:	b0 16 80    	mov.w     0x2d6, w0
    1794:	01 00 60    	and.w     w0, w1, w0
    1796:	a0 16 88    	mov.w     w0, 0x2d4
    1798:	71 ff 2f    	mov.w     #0xfff7, w1
    179a:	20 2d 20    	mov.w     #0x2d2, w0
    179c:	10 88 60    	and.w     w1, [w0], [w0]
    179e:	b0 16 80    	mov.w     0x2d6, w0
    17a0:	01 00 60    	and.w     w0, w1, w0
    17a2:	a0 16 88    	mov.w     w0, 0x2d4
    17a4:	f1 ef 2f    	mov.w     #0xfeff, w1
    17a6:	20 2d 20    	mov.w     #0x2d2, w0
    17a8:	10 88 60    	and.w     w1, [w0], [w0]
    17aa:	b0 16 80    	mov.w     0x2d6, w0
    17ac:	01 00 60    	and.w     w0, w1, w0
    17ae:	a0 16 88    	mov.w     w0, 0x2d4
    17b0:	f1 df 2f    	mov.w     #0xfdff, w1
    17b2:	20 2d 20    	mov.w     #0x2d2, w0
    17b4:	10 88 60    	and.w     w1, [w0], [w0]
    17b6:	b0 16 80    	mov.w     0x2d6, w0
    17b8:	01 00 60    	and.w     w0, w1, w0
    17ba:	a0 16 88    	mov.w     w0, 0x2d4
    17bc:	89 80 fb    	ze        w9, w1
    17be:	c4 08 de    	lsr.w     w1, #0x4, w1
    17c0:	20 2d 20    	mov.w     #0x2d2, w0
    17c2:	10 08 61    	and.w     w2, [w0], [w0]
    17c4:	01 08 a3    	btst.z    w1, #0x0
    17c6:	05 00 32    	bra       Z, 0x17d2 <.L185>
    17c8:	b0 16 80    	mov.w     0x2d6, w0
    17ca:	00 00 a0    	bset.w    w0, #0x0
    17cc:	a0 16 88    	mov.w     w0, 0x2d4
    17ce:	a0 16 80    	mov.w     0x2d4, w0
    17d0:	05 00 37    	bra       0x17dc <.L186>

000017d2 <.L185>:
    17d2:	e2 ff 2f    	mov.w     #0xfffe, w2
    17d4:	b0 16 80    	mov.w     0x2d6, w0
    17d6:	02 00 60    	and.w     w0, w2, w0
    17d8:	a0 16 88    	mov.w     w0, 0x2d4
    17da:	a0 16 80    	mov.w     0x2d4, w0

000017dc <.L186>:
    17dc:	01 80 fb    	ze        w1, w0
    17de:	00 00 d1    	lsr.w     w0, w0
    17e0:	d2 22 a9    	bclr.b    0x2d2, #0x1
    17e2:	00 08 a3    	btst.z    w0, #0x0
    17e4:	05 00 32    	bra       Z, 0x17f0 <.L187>
    17e6:	b1 16 80    	mov.w     0x2d6, w1
    17e8:	01 10 a0    	bset.w    w1, #0x1
    17ea:	a1 16 88    	mov.w     w1, 0x2d4
    17ec:	a1 16 80    	mov.w     0x2d4, w1
    17ee:	05 00 37    	bra       0x17fa <.L188>

000017f0 <.L187>:
    17f0:	d1 ff 2f    	mov.w     #0xfffd, w1
    17f2:	b2 16 80    	mov.w     0x2d6, w2
    17f4:	01 01 61    	and.w     w2, w1, w2
    17f6:	a2 16 88    	mov.w     w2, 0x2d4
    17f8:	a1 16 80    	mov.w     0x2d4, w1

000017fa <.L188>:
    17fa:	00 80 fb    	ze        w0, w0
    17fc:	00 00 d1    	lsr.w     w0, w0
    17fe:	d2 42 a9    	bclr.b    0x2d2, #0x2
    1800:	00 08 a3    	btst.z    w0, #0x0
    1802:	05 00 32    	bra       Z, 0x180e <.L189>
    1804:	b1 16 80    	mov.w     0x2d6, w1
    1806:	01 20 a0    	bset.w    w1, #0x2
    1808:	a1 16 88    	mov.w     w1, 0x2d4
    180a:	a1 16 80    	mov.w     0x2d4, w1
    180c:	05 00 37    	bra       0x1818 <.L190>

0000180e <.L189>:
    180e:	b1 ff 2f    	mov.w     #0xfffb, w1
    1810:	b2 16 80    	mov.w     0x2d6, w2
    1812:	01 01 61    	and.w     w2, w1, w2
    1814:	a2 16 88    	mov.w     w2, 0x2d4
    1816:	a1 16 80    	mov.w     0x2d4, w1

00001818 <.L190>:
    1818:	d2 62 a9    	bclr.b    0x2d2, #0x3
    181a:	00 18 a3    	btst.z    w0, #0x1
    181c:	05 00 32    	bra       Z, 0x1828 <.L191>
    181e:	b0 16 80    	mov.w     0x2d6, w0
    1820:	00 30 a0    	bset.w    w0, #0x3
    1822:	a0 16 88    	mov.w     w0, 0x2d4
    1824:	a0 16 80    	mov.w     0x2d4, w0
    1826:	05 00 37    	bra       0x1832 <.L192>

00001828 <.L191>:
    1828:	71 ff 2f    	mov.w     #0xfff7, w1
    182a:	b0 16 80    	mov.w     0x2d6, w0
    182c:	01 00 60    	and.w     w0, w1, w0
    182e:	a0 16 88    	mov.w     w0, 0x2d4
    1830:	a0 16 80    	mov.w     0x2d4, w0

00001832 <.L192>:
    1832:	0a 04 e0    	cp0.b     w10
    1834:	04 00 32    	bra       Z, 0x183e <.L193>
    1836:	d3 02 a9    	bclr.b    0x2d3, #0x0
    1838:	b0 16 80    	mov.w     0x2d6, w0
    183a:	00 80 a0    	bset.w    w0, #0x8
    183c:	a0 16 88    	mov.w     w0, 0x2d4

0000183e <.L193>:
    183e:	40 b5 20    	mov.w     #0xb54, w0
    1840:	01 00 20    	mov.w     #0x0, w1
    1842:	7c f4 07    	rcall     0x13c <___delay32> <.init>
    1844:	f8 df 2f    	mov.w     #0xfdff, w8
    1846:	22 2d 20    	mov.w     #0x2d2, w2
    1848:	12 09 64    	and.w     w8, [w2], [w2]
    184a:	b0 16 80    	mov.w     0x2d6, w0
    184c:	00 90 a0    	bset.w    w0, #0x9
    184e:	a0 16 88    	mov.w     w0, 0x2d4
    1850:	40 b5 20    	mov.w     #0xb54, w0
    1852:	01 00 20    	mov.w     #0x0, w1
    1854:	73 f4 07    	rcall     0x13c <___delay32> <.init>
    1856:	20 2d 20    	mov.w     #0x2d2, w0
    1858:	10 08 64    	and.w     w8, [w0], [w0]
    185a:	b2 16 80    	mov.w     0x2d6, w2
    185c:	08 01 61    	and.w     w2, w8, w2
    185e:	a2 16 88    	mov.w     w2, 0x2d4
    1860:	40 b5 20    	mov.w     #0xb54, w0
    1862:	01 00 20    	mov.w     #0x0, w1
    1864:	6b f4 07    	rcall     0x13c <___delay32> <.init>
    1866:	e2 ff 2f    	mov.w     #0xfffe, w2
    1868:	20 2d 20    	mov.w     #0x2d2, w0
    186a:	10 08 61    	and.w     w2, [w0], [w0]
    186c:	b0 16 80    	mov.w     0x2d6, w0
    186e:	02 00 60    	and.w     w0, w2, w0
    1870:	a0 16 88    	mov.w     w0, 0x2d4
    1872:	d1 ff 2f    	mov.w     #0xfffd, w1
    1874:	20 2d 20    	mov.w     #0x2d2, w0
    1876:	10 88 60    	and.w     w1, [w0], [w0]
    1878:	b0 16 80    	mov.w     0x2d6, w0
    187a:	01 00 60    	and.w     w0, w1, w0
    187c:	a0 16 88    	mov.w     w0, 0x2d4
    187e:	b1 ff 2f    	mov.w     #0xfffb, w1
    1880:	20 2d 20    	mov.w     #0x2d2, w0
    1882:	10 88 60    	and.w     w1, [w0], [w0]
    1884:	b0 16 80    	mov.w     0x2d6, w0
    1886:	01 00 60    	and.w     w0, w1, w0
    1888:	a0 16 88    	mov.w     w0, 0x2d4
    188a:	71 ff 2f    	mov.w     #0xfff7, w1
    188c:	20 2d 20    	mov.w     #0x2d2, w0
    188e:	10 88 60    	and.w     w1, [w0], [w0]
    1890:	b0 16 80    	mov.w     0x2d6, w0
    1892:	01 00 60    	and.w     w0, w1, w0
    1894:	a0 16 88    	mov.w     w0, 0x2d4
    1896:	f1 ef 2f    	mov.w     #0xfeff, w1
    1898:	20 2d 20    	mov.w     #0x2d2, w0
    189a:	10 88 60    	and.w     w1, [w0], [w0]
    189c:	b0 16 80    	mov.w     0x2d6, w0
    189e:	01 00 60    	and.w     w0, w1, w0
    18a0:	a0 16 88    	mov.w     w0, 0x2d4
    18a2:	ef c4 64    	and.b     w9, #0xf, w9
    18a4:	20 2d 20    	mov.w     #0x2d2, w0
    18a6:	10 08 61    	and.w     w2, [w0], [w0]
    18a8:	09 08 a3    	btst.z    w9, #0x0
    18aa:	05 00 32    	bra       Z, 0x18b6 <.L194>
    18ac:	b0 16 80    	mov.w     0x2d6, w0
    18ae:	00 00 a0    	bset.w    w0, #0x0
    18b0:	a0 16 88    	mov.w     w0, 0x2d4
    18b2:	a0 16 80    	mov.w     0x2d4, w0
    18b4:	05 00 37    	bra       0x18c0 <.L195>

000018b6 <.L194>:
    18b6:	e1 ff 2f    	mov.w     #0xfffe, w1
    18b8:	b2 16 80    	mov.w     0x2d6, w2
    18ba:	01 01 61    	and.w     w2, w1, w2
    18bc:	a2 16 88    	mov.w     w2, 0x2d4
    18be:	a0 16 80    	mov.w     0x2d4, w0

000018c0 <.L195>:
    18c0:	89 84 fb    	ze        w9, w9
    18c2:	09 00 d1    	lsr.w     w9, w0
    18c4:	d2 22 a9    	bclr.b    0x2d2, #0x1
    18c6:	00 08 a3    	btst.z    w0, #0x0
    18c8:	05 00 32    	bra       Z, 0x18d4 <.L196>
    18ca:	b1 16 80    	mov.w     0x2d6, w1
    18cc:	01 10 a0    	bset.w    w1, #0x1
    18ce:	a1 16 88    	mov.w     w1, 0x2d4
    18d0:	a1 16 80    	mov.w     0x2d4, w1
    18d2:	05 00 37    	bra       0x18de <.L197>

000018d4 <.L196>:
    18d4:	d1 ff 2f    	mov.w     #0xfffd, w1
    18d6:	b2 16 80    	mov.w     0x2d6, w2
    18d8:	01 01 61    	and.w     w2, w1, w2
    18da:	a2 16 88    	mov.w     w2, 0x2d4
    18dc:	a1 16 80    	mov.w     0x2d4, w1

000018de <.L197>:
    18de:	00 80 fb    	ze        w0, w0
    18e0:	00 00 d1    	lsr.w     w0, w0
    18e2:	d2 42 a9    	bclr.b    0x2d2, #0x2
    18e4:	00 08 a3    	btst.z    w0, #0x0
    18e6:	05 00 32    	bra       Z, 0x18f2 <.L198>
    18e8:	b1 16 80    	mov.w     0x2d6, w1
    18ea:	01 20 a0    	bset.w    w1, #0x2
    18ec:	a1 16 88    	mov.w     w1, 0x2d4
    18ee:	a1 16 80    	mov.w     0x2d4, w1
    18f0:	05 00 37    	bra       0x18fc <.L199>

000018f2 <.L198>:
    18f2:	b1 ff 2f    	mov.w     #0xfffb, w1
    18f4:	b2 16 80    	mov.w     0x2d6, w2
    18f6:	01 01 61    	and.w     w2, w1, w2
    18f8:	a2 16 88    	mov.w     w2, 0x2d4
    18fa:	a1 16 80    	mov.w     0x2d4, w1

000018fc <.L199>:
    18fc:	d2 62 a9    	bclr.b    0x2d2, #0x3
    18fe:	00 18 a3    	btst.z    w0, #0x1
    1900:	05 00 32    	bra       Z, 0x190c <.L200>
    1902:	b0 16 80    	mov.w     0x2d6, w0
    1904:	00 30 a0    	bset.w    w0, #0x3
    1906:	a0 16 88    	mov.w     w0, 0x2d4
    1908:	a0 16 80    	mov.w     0x2d4, w0
    190a:	05 00 37    	bra       0x1916 <.L201>

0000190c <.L200>:
    190c:	71 ff 2f    	mov.w     #0xfff7, w1
    190e:	b0 16 80    	mov.w     0x2d6, w0
    1910:	01 00 60    	and.w     w0, w1, w0
    1912:	a0 16 88    	mov.w     w0, 0x2d4
    1914:	a0 16 80    	mov.w     0x2d4, w0

00001916 <.L201>:
    1916:	0a 04 e0    	cp0.b     w10
    1918:	04 00 32    	bra       Z, 0x1922 <.L202>
    191a:	d3 02 a9    	bclr.b    0x2d3, #0x0
    191c:	b0 16 80    	mov.w     0x2d6, w0
    191e:	00 80 a0    	bset.w    w0, #0x8
    1920:	a0 16 88    	mov.w     w0, 0x2d4

00001922 <.L202>:
    1922:	40 b5 20    	mov.w     #0xb54, w0
    1924:	01 00 20    	mov.w     #0x0, w1
    1926:	0a f4 07    	rcall     0x13c <___delay32> <.init>
    1928:	f8 df 2f    	mov.w     #0xfdff, w8
    192a:	22 2d 20    	mov.w     #0x2d2, w2
    192c:	12 09 64    	and.w     w8, [w2], [w2]
    192e:	b0 16 80    	mov.w     0x2d6, w0
    1930:	00 90 a0    	bset.w    w0, #0x9
    1932:	a0 16 88    	mov.w     w0, 0x2d4
    1934:	40 b5 20    	mov.w     #0xb54, w0
    1936:	01 00 20    	mov.w     #0x0, w1
    1938:	01 f4 07    	rcall     0x13c <___delay32> <.init>
    193a:	20 2d 20    	mov.w     #0x2d2, w0
    193c:	10 08 64    	and.w     w8, [w0], [w0]
    193e:	b2 16 80    	mov.w     0x2d6, w2
    1940:	08 01 61    	and.w     w2, w8, w2
    1942:	a2 16 88    	mov.w     w2, 0x2d4
    1944:	40 b5 20    	mov.w     #0xb54, w0
    1946:	01 00 20    	mov.w     #0x0, w1
    1948:	f9 f3 07    	rcall     0x13c <___delay32> <.init>
    194a:	4f 05 78    	mov.w     [--w15], w10
    194c:	4f 04 be    	mov.d     [--w15], w8
    194e:	00 00 06    	return    

00001950 <_FCD_04071_LCD__ScrollDisplay>:
    1950:	88 9f be    	mov.d     w8, [w15++]
    1952:	00 44 78    	mov.b     w0, w8
    1954:	c9 c1 b3    	mov.b     #0x1c, w9
    1956:	01 04 e0    	cp0.b     w1
    1958:	01 00 3a    	bra       NZ, 0x195c <.L204>
    195a:	89 c1 b3    	mov.b     #0x18, w9

0000195c <.L204>:
    195c:	08 04 e0    	cp0.b     w8
    195e:	05 00 32    	bra       Z, 0x196a <.L203>

00001960 <.L206>:
    1960:	80 40 eb    	clr.b     w1
    1962:	09 40 78    	mov.b     w9, w0
    1964:	03 ff 07    	rcall     0x176c <_FCD_04071_LCD__RawSend>
    1966:	08 44 e9    	dec.b     w8, w8
    1968:	fb ff 3a    	bra       NZ, 0x1960 <.L206>

0000196a <.L203>:
    196a:	4f 04 be    	mov.d     [--w15], w8
    196c:	00 00 06    	return    

0000196e <_FCD_04071_LCD__Command>:
    196e:	80 40 eb    	clr.b     w1
    1970:	fd fe 07    	rcall     0x176c <_FCD_04071_LCD__RawSend>
    1972:	00 65 2e    	mov.w     #0xe650, w0
    1974:	01 00 20    	mov.w     #0x0, w1
    1976:	e2 f3 37    	bra       0x13c <___delay32> <.init>

00001978 <_FCD_04071_LCD__Cursor>:
    1978:	02 cc b3    	mov.b     #0xc0, w2
    197a:	01 04 e0    	cp0.b     w1
    197c:	01 00 3a    	bra       NZ, 0x1980 <.L210>
    197e:	02 c8 b3    	mov.b     #0x80, w2

00001980 <.L210>:
    1980:	00 40 41    	add.b     w2, w0, w0
    1982:	80 40 eb    	clr.b     w1
    1984:	f3 fe 07    	rcall     0x176c <_FCD_04071_LCD__RawSend>
    1986:	00 65 2e    	mov.w     #0xe650, w0
    1988:	01 00 20    	mov.w     #0x0, w1
    198a:	d8 f3 37    	bra       0x13c <___delay32> <.init>

0000198c <_FCD_04071_LCD__ClearLine>:
    198c:	88 9f be    	mov.d     w8, [w15++]
    198e:	80 44 78    	mov.b     w0, w9
    1990:	e1 cf 54    	sub.b     w9, #0x1, [w15]
    1992:	0d 00 3e    	bra       GTU, 0x19ae <.L212>
    1994:	89 40 78    	mov.b     w9, w1
    1996:	00 40 eb    	clr.b     w0
    1998:	ef ff 07    	rcall     0x1978 <_FCD_04071_LCD__Cursor>
    199a:	00 44 eb    	clr.b     w8

0000199c <.L214>:
    199c:	11 c0 b3    	mov.b     #0x1, w1
    199e:	00 c2 b3    	mov.b     #0x20, w0
    19a0:	e5 fe 07    	rcall     0x176c <_FCD_04071_LCD__RawSend>
    19a2:	08 44 e8    	inc.b     w8, w8
    19a4:	f0 4f 54    	sub.b     w8, #0x10, [w15]
    19a6:	fa ff 3a    	bra       NZ, 0x199c <.L214>
    19a8:	89 40 78    	mov.b     w9, w1
    19aa:	00 40 eb    	clr.b     w0
    19ac:	e5 ff 07    	rcall     0x1978 <_FCD_04071_LCD__Cursor>

000019ae <.L212>:
    19ae:	4f 04 be    	mov.d     [--w15], w8
    19b0:	00 00 06    	return    

000019b2 <_FCD_04071_LCD__PrintAscii>:
    19b2:	11 c0 b3    	mov.b     #0x1, w1
    19b4:	db fe 37    	bra       0x176c <_FCD_04071_LCD__RawSend>

000019b6 <_FCD_04071_LCD__PrintString>:
    19b6:	88 9f be    	mov.d     w8, [w15++]
    19b8:	8a 1f 78    	mov.w     w10, [w15++]
    19ba:	00 05 78    	mov.w     w0, w10
    19bc:	0a 00 78    	mov.w     w10, w0
    19be:	19 fb 07    	rcall     0xff2 <_FCI_GETLENGTH> <.text>
    19c0:	80 44 78    	mov.b     w0, w9
    19c2:	09 04 e0    	cp0.b     w9
    19c4:	07 00 32    	bra       Z, 0x19d4 <.L216>
    19c6:	0a 04 78    	mov.w     w10, w8

000019c8 <.L218>:
    19c8:	38 40 78    	mov.b     [w8++], w0
    19ca:	11 c0 b3    	mov.b     #0x1, w1
    19cc:	cf fe 07    	rcall     0x176c <_FCD_04071_LCD__RawSend>
    19ce:	0a 40 54    	sub.b     w8, w10, w0
    19d0:	80 cf 54    	sub.b     w9, w0, [w15]
    19d2:	fa ff 3e    	bra       GTU, 0x19c8 <.L218>

000019d4 <.L216>:
    19d4:	4f 05 78    	mov.w     [--w15], w10
    19d6:	4f 04 be    	mov.d     [--w15], w8
    19d8:	00 00 06    	return    

000019da <_FCD_04071_LCD__PrintFormattedNumber>:
    19da:	10 00 fa    	lnk       #0x10
    19dc:	02 04 e0    	cp0.b     w2
    19de:	04 00 32    	bra       Z, 0x19e8 <.L220>
    19e0:	f3 00 20    	mov.w     #0xf, w3
    19e2:	70 81 57    	sub.w     w15, #0x10, w2
    19e4:	6b fb 07    	rcall     0x10bc <_FCI_TOSTRU32>
    19e6:	03 00 37    	bra       0x19ee <.L221>

000019e8 <.L220>:
    19e8:	f3 00 20    	mov.w     #0xf, w3
    19ea:	70 81 57    	sub.w     w15, #0x10, w2
    19ec:	0f fb 07    	rcall     0x100c <_FCI_TOSTRS32>

000019ee <.L221>:
    19ee:	f1 00 20    	mov.w     #0xf, w1
    19f0:	70 80 57    	sub.w     w15, #0x10, w0
    19f2:	e1 ff 07    	rcall     0x19b6 <_FCD_04071_LCD__PrintString>
    19f4:	00 80 fa    	ulnk      
    19f6:	00 00 06    	return    

000019f8 <_FCD_04071_LCD__PrintNumber>:
    19f8:	0a 00 fa    	lnk       #0xa
    19fa:	cf 80 de    	asr.w     w0, #0xf, w1
    19fc:	a3 00 20    	mov.w     #0xa, w3
    19fe:	6a 81 57    	sub.w     w15, #0xa, w2
    1a00:	9e fb 07    	rcall     0x113e <_FCI_TOSTRING>
    1a02:	a1 00 20    	mov.w     #0xa, w1
    1a04:	6a 80 57    	sub.w     w15, #0xa, w0
    1a06:	d7 ff 07    	rcall     0x19b6 <_FCD_04071_LCD__PrintString>
    1a08:	00 80 fa    	ulnk      
    1a0a:	00 00 06    	return    

00001a0c <_FCD_04071_LCD__Clear>:
    1a0c:	80 40 eb    	clr.b     w1
    1a0e:	10 c0 b3    	mov.b     #0x1, w0
    1a10:	ad fe 07    	rcall     0x176c <_FCD_04071_LCD__RawSend>
    1a12:	00 65 2e    	mov.w     #0xe650, w0
    1a14:	01 00 20    	mov.w     #0x0, w1
    1a16:	92 f3 07    	rcall     0x13c <___delay32> <.init>
    1a18:	80 40 eb    	clr.b     w1
    1a1a:	20 c0 b3    	mov.b     #0x2, w0
    1a1c:	a7 fe 07    	rcall     0x176c <_FCD_04071_LCD__RawSend>
    1a1e:	00 65 2e    	mov.w     #0xe650, w0
    1a20:	01 00 20    	mov.w     #0x0, w1
    1a22:	8c f3 37    	bra       0x13c <___delay32> <.init>

00001a24 <_FCD_04071_LCD__RAMWrite>:
    1a24:	8f 87 e8    	inc2.w    w15, w15
    1a26:	88 9f be    	mov.d     w8, [w15++]
    1a28:	8a 9f be    	mov.d     w10, [w15++]
    1a2a:	8c 9f be    	mov.d     w12, [w15++]
    1a2c:	8e 1f 78    	mov.w     w14, [w15++]
    1a2e:	01 44 78    	mov.b     w1, w8
    1a30:	82 44 78    	mov.b     w2, w9
    1a32:	03 45 78    	mov.b     w3, w10
    1a34:	84 45 78    	mov.b     w4, w11
    1a36:	05 46 78    	mov.b     w5, w12
    1a38:	86 46 78    	mov.b     w6, w13
    1a3a:	07 47 78    	mov.b     w7, w14
    1a3c:	31 00 20    	mov.w     #0x3, w1
    1a3e:	01 00 dd    	sl.w      w0, w1, w0
    1a40:	00 44 b0    	add.b     #0x40, w0
    1a42:	80 40 eb    	clr.b     w1
    1a44:	93 fe 07    	rcall     0x176c <_FCD_04071_LCD__RawSend>
    1a46:	00 65 2e    	mov.w     #0xe650, w0
    1a48:	01 00 20    	mov.w     #0x0, w1
    1a4a:	78 f3 07    	rcall     0x13c <___delay32> <.init>
    1a4c:	11 c0 b3    	mov.b     #0x1, w1
    1a4e:	08 40 78    	mov.b     w8, w0
    1a50:	8d fe 07    	rcall     0x176c <_FCD_04071_LCD__RawSend>
    1a52:	11 c0 b3    	mov.b     #0x1, w1
    1a54:	09 40 78    	mov.b     w9, w0
    1a56:	8a fe 07    	rcall     0x176c <_FCD_04071_LCD__RawSend>
    1a58:	11 c0 b3    	mov.b     #0x1, w1
    1a5a:	0a 40 78    	mov.b     w10, w0
    1a5c:	87 fe 07    	rcall     0x176c <_FCD_04071_LCD__RawSend>
    1a5e:	11 c0 b3    	mov.b     #0x1, w1
    1a60:	0b 40 78    	mov.b     w11, w0
    1a62:	84 fe 07    	rcall     0x176c <_FCD_04071_LCD__RawSend>
    1a64:	11 c0 b3    	mov.b     #0x1, w1
    1a66:	0c 40 78    	mov.b     w12, w0
    1a68:	81 fe 07    	rcall     0x176c <_FCD_04071_LCD__RawSend>
    1a6a:	11 c0 b3    	mov.b     #0x1, w1
    1a6c:	0d 40 78    	mov.b     w13, w0
    1a6e:	7e fe 07    	rcall     0x176c <_FCD_04071_LCD__RawSend>
    1a70:	11 c0 b3    	mov.b     #0x1, w1
    1a72:	0e 40 78    	mov.b     w14, w0
    1a74:	7b fe 07    	rcall     0x176c <_FCD_04071_LCD__RawSend>
    1a76:	11 c0 b3    	mov.b     #0x1, w1
    1a78:	2f e8 97    	mov.b     [w15-22], w0
    1a7a:	78 fe 07    	rcall     0x176c <_FCD_04071_LCD__RawSend>
    1a7c:	c7 ff 07    	rcall     0x1a0c <_FCD_04071_LCD__Clear>
    1a7e:	4f 07 78    	mov.w     [--w15], w14
    1a80:	4f 06 be    	mov.d     [--w15], w12
    1a82:	4f 05 be    	mov.d     [--w15], w10
    1a84:	4f 04 be    	mov.d     [--w15], w8
    1a86:	2f 00 b1    	sub.w     #0x2, w15
    1a88:	00 00 06    	return    

00001a8a <_FCD_04071_LCD__RemapCharacter>:
    1a8a:	00 00 06    	return    

00001a8c <_FCD_04071_LCD__Start>:
    1a8c:	e1 ff 2f    	mov.w     #0xfffe, w1
    1a8e:	20 2d 20    	mov.w     #0x2d2, w0
    1a90:	10 88 60    	and.w     w1, [w0], [w0]
    1a92:	b0 16 80    	mov.w     0x2d6, w0
    1a94:	01 00 60    	and.w     w0, w1, w0
    1a96:	a0 16 88    	mov.w     w0, 0x2d4
    1a98:	d1 ff 2f    	mov.w     #0xfffd, w1
    1a9a:	20 2d 20    	mov.w     #0x2d2, w0
    1a9c:	10 88 60    	and.w     w1, [w0], [w0]
    1a9e:	b0 16 80    	mov.w     0x2d6, w0
    1aa0:	01 00 60    	and.w     w0, w1, w0
    1aa2:	a0 16 88    	mov.w     w0, 0x2d4
    1aa4:	b1 ff 2f    	mov.w     #0xfffb, w1
    1aa6:	20 2d 20    	mov.w     #0x2d2, w0
    1aa8:	10 88 60    	and.w     w1, [w0], [w0]
    1aaa:	b0 16 80    	mov.w     0x2d6, w0
    1aac:	01 00 60    	and.w     w0, w1, w0
    1aae:	a0 16 88    	mov.w     w0, 0x2d4
    1ab0:	71 ff 2f    	mov.w     #0xfff7, w1
    1ab2:	20 2d 20    	mov.w     #0x2d2, w0
    1ab4:	10 88 60    	and.w     w1, [w0], [w0]
    1ab6:	b0 16 80    	mov.w     0x2d6, w0
    1ab8:	01 00 60    	and.w     w0, w1, w0
    1aba:	a0 16 88    	mov.w     w0, 0x2d4
    1abc:	f1 ef 2f    	mov.w     #0xfeff, w1
    1abe:	20 2d 20    	mov.w     #0x2d2, w0
    1ac0:	10 88 60    	and.w     w1, [w0], [w0]
    1ac2:	b0 16 80    	mov.w     0x2d6, w0
    1ac4:	01 00 60    	and.w     w0, w1, w0
    1ac6:	a0 16 88    	mov.w     w0, 0x2d4
    1ac8:	f1 df 2f    	mov.w     #0xfdff, w1
    1aca:	20 2d 20    	mov.w     #0x2d2, w0
    1acc:	10 88 60    	and.w     w1, [w0], [w0]
    1ace:	b0 16 80    	mov.w     0x2d6, w0
    1ad0:	01 00 60    	and.w     w0, w1, w0
    1ad2:	a0 16 88    	mov.w     w0, 0x2d4
    1ad4:	00 5e 26    	mov.w     #0x65e0, w0
    1ad6:	51 00 20    	mov.w     #0x5, w1
    1ad8:	31 f3 07    	rcall     0x13c <___delay32> <.init>
    1ada:	80 40 eb    	clr.b     w1
    1adc:	30 c3 b3    	mov.b     #0x33, w0
    1ade:	46 fe 07    	rcall     0x176c <_FCD_04071_LCD__RawSend>
    1ae0:	00 65 2e    	mov.w     #0xe650, w0
    1ae2:	01 00 20    	mov.w     #0x0, w1
    1ae4:	2b f3 07    	rcall     0x13c <___delay32> <.init>
    1ae6:	80 40 eb    	clr.b     w1
    1ae8:	30 c3 b3    	mov.b     #0x33, w0
    1aea:	40 fe 07    	rcall     0x176c <_FCD_04071_LCD__RawSend>
    1aec:	00 65 2e    	mov.w     #0xe650, w0
    1aee:	01 00 20    	mov.w     #0x0, w1
    1af0:	25 f3 07    	rcall     0x13c <___delay32> <.init>
    1af2:	80 40 eb    	clr.b     w1
    1af4:	20 c3 b3    	mov.b     #0x32, w0
    1af6:	3a fe 07    	rcall     0x176c <_FCD_04071_LCD__RawSend>
    1af8:	00 65 2e    	mov.w     #0xe650, w0
    1afa:	01 00 20    	mov.w     #0x0, w1
    1afc:	1f f3 07    	rcall     0x13c <___delay32> <.init>
    1afe:	80 40 eb    	clr.b     w1
    1b00:	c0 c2 b3    	mov.b     #0x2c, w0
    1b02:	34 fe 07    	rcall     0x176c <_FCD_04071_LCD__RawSend>
    1b04:	00 65 2e    	mov.w     #0xe650, w0
    1b06:	01 00 20    	mov.w     #0x0, w1
    1b08:	19 f3 07    	rcall     0x13c <___delay32> <.init>
    1b0a:	80 40 eb    	clr.b     w1
    1b0c:	60 c0 b3    	mov.b     #0x6, w0
    1b0e:	2e fe 07    	rcall     0x176c <_FCD_04071_LCD__RawSend>
    1b10:	00 65 2e    	mov.w     #0xe650, w0
    1b12:	01 00 20    	mov.w     #0x0, w1
    1b14:	13 f3 07    	rcall     0x13c <___delay32> <.init>
    1b16:	80 40 eb    	clr.b     w1
    1b18:	c0 c0 b3    	mov.b     #0xc, w0
    1b1a:	28 fe 07    	rcall     0x176c <_FCD_04071_LCD__RawSend>
    1b1c:	00 65 2e    	mov.w     #0xe650, w0
    1b1e:	01 00 20    	mov.w     #0x0, w1
    1b20:	0d f3 07    	rcall     0x13c <___delay32> <.init>
    1b22:	80 40 eb    	clr.b     w1
    1b24:	10 c0 b3    	mov.b     #0x1, w0
    1b26:	22 fe 07    	rcall     0x176c <_FCD_04071_LCD__RawSend>
    1b28:	00 65 2e    	mov.w     #0xe650, w0
    1b2a:	01 00 20    	mov.w     #0x0, w1
    1b2c:	07 f3 07    	rcall     0x13c <___delay32> <.init>
    1b2e:	80 40 eb    	clr.b     w1
    1b30:	20 c0 b3    	mov.b     #0x2, w0
    1b32:	1c fe 07    	rcall     0x176c <_FCD_04071_LCD__RawSend>
    1b34:	00 65 2e    	mov.w     #0xe650, w0
    1b36:	01 00 20    	mov.w     #0x0, w1
    1b38:	01 f3 07    	rcall     0x13c <___delay32> <.init>
    1b3a:	68 ff 37    	bra       0x1a0c <_FCD_04071_LCD__Clear>

00001b3c <_FCD_08f41_adc_base__RawSampleInt>:
    1b3c:	10 c0 b3    	mov.b     #0x1, w0
    1b3e:	54 fd 37    	bra       0x15e8 <_FC_CAL_ADC_Sample>

00001b40 <_FCD_08f41_adc_base__RawAverageByte>:
    1b40:	88 9f be    	mov.d     w8, [w15++]
    1b42:	8a 9f be    	mov.d     w10, [w15++]
    1b44:	00 45 78    	mov.b     w0, w10
    1b46:	81 45 78    	mov.b     w1, w11
    1b48:	0b 04 e0    	cp0.b     w11
    1b4a:	06 00 3a    	bra       NZ, 0x1b58 <.L229>
    1b4c:	80 44 eb    	clr.b     w9
    1b4e:	00 04 eb    	clr.w     w8
    1b50:	0a 04 e0    	cp0.b     w10
    1b52:	12 00 3a    	bra       NZ, 0x1b78 <.L233>
    1b54:	09 41 78    	mov.b     w9, w2
    1b56:	17 00 37    	bra       0x1b86 <.L231>

00001b58 <.L229>:
    1b58:	00 41 eb    	clr.b     w2
    1b5a:	00 04 eb    	clr.w     w8
    1b5c:	0a 04 e0    	cp0.b     w10
    1b5e:	13 00 32    	bra       Z, 0x1b86 <.L231>
    1b60:	82 44 78    	mov.b     w2, w9

00001b62 <.L232>:
    1b62:	00 40 eb    	clr.b     w0
    1b64:	41 fd 07    	rcall     0x15e8 <_FC_CAL_ADC_Sample>
    1b66:	00 04 44    	add.w     w8, w0, w8
    1b68:	89 44 e8    	inc.b     w9, w9
    1b6a:	0b 80 fb    	ze        w11, w0
    1b6c:	7d 00 b8    	mul.uu    w0, #0x1d, w0
    1b6e:	e6 f2 07    	rcall     0x13c <___delay32> <.init>
    1b70:	89 4f 55    	sub.b     w10, w9, [w15]
    1b72:	f7 ff 3e    	bra       GTU, 0x1b62 <.L232>
    1b74:	0a 41 78    	mov.b     w10, w2
    1b76:	07 00 37    	bra       0x1b86 <.L231>

00001b78 <.L233>:
    1b78:	00 40 eb    	clr.b     w0
    1b7a:	36 fd 07    	rcall     0x15e8 <_FC_CAL_ADC_Sample>
    1b7c:	00 04 44    	add.w     w8, w0, w8
    1b7e:	89 44 e8    	inc.b     w9, w9
    1b80:	89 4f 55    	sub.b     w10, w9, [w15]
    1b82:	fa ff 3e    	bra       GTU, 0x1b78 <.L233>
    1b84:	0a 41 78    	mov.b     w10, w2

00001b86 <.L231>:
    1b86:	02 81 fb    	ze        w2, w2
    1b88:	11 00 09    	repeat    #0x11
    1b8a:	02 84 d8    	div.uw    w8, w2
    1b8c:	4f 05 be    	mov.d     [--w15], w10
    1b8e:	4f 04 be    	mov.d     [--w15], w8
    1b90:	00 00 06    	return    

00001b92 <_FCD_08f41_adc_base__GetAverageByte>:
    1b92:	88 9f be    	mov.d     w8, [w15++]
    1b94:	80 44 78    	mov.b     w0, w9
    1b96:	01 44 78    	mov.b     w1, w8
    1b98:	83 c2 b3    	mov.b     #0x28, w3
    1b9a:	00 41 eb    	clr.b     w2
    1b9c:	31 c0 b3    	mov.b     #0x3, w1
    1b9e:	90 c0 b3    	mov.b     #0x9, w0
    1ba0:	fc fc 07    	rcall     0x159a <_FC_CAL_ADC_Enable>
    1ba2:	88 40 78    	mov.b     w8, w1
    1ba4:	09 40 78    	mov.b     w9, w0
    1ba6:	cc ff 07    	rcall     0x1b40 <_FCD_08f41_adc_base__RawAverageByte>
    1ba8:	00 44 78    	mov.b     w0, w8
    1baa:	2f fd 07    	rcall     0x160a <_FC_CAL_ADC_Disable>
    1bac:	08 40 78    	mov.b     w8, w0
    1bae:	4f 04 be    	mov.d     [--w15], w8
    1bb0:	00 00 06    	return    

00001bb2 <_FCD_08f41_adc_base__RawAverageInt>:
    1bb2:	88 9f be    	mov.d     w8, [w15++]
    1bb4:	8a 9f be    	mov.d     w10, [w15++]
    1bb6:	8c 1f 78    	mov.w     w12, [w15++]
    1bb8:	80 45 78    	mov.b     w0, w11
    1bba:	01 46 78    	mov.b     w1, w12
    1bbc:	0c 04 e0    	cp0.b     w12
    1bbe:	06 00 3a    	bra       NZ, 0x1bcc <.L237>
    1bc0:	00 45 eb    	clr.b     w10
    1bc2:	60 44 b8    	mul.uu    w8, #0x0, w8
    1bc4:	0b 04 e0    	cp0.b     w11
    1bc6:	13 00 3a    	bra       NZ, 0x1bee <.L241>
    1bc8:	0a 41 78    	mov.b     w10, w2
    1bca:	19 00 37    	bra       0x1bfe <.L239>

00001bcc <.L237>:
    1bcc:	00 41 eb    	clr.b     w2
    1bce:	60 44 b8    	mul.uu    w8, #0x0, w8
    1bd0:	0b 04 e0    	cp0.b     w11
    1bd2:	15 00 32    	bra       Z, 0x1bfe <.L239>
    1bd4:	02 45 78    	mov.b     w2, w10

00001bd6 <.L240>:
    1bd6:	10 c0 b3    	mov.b     #0x1, w0
    1bd8:	07 fd 07    	rcall     0x15e8 <_FC_CAL_ADC_Sample>
    1bda:	08 04 40    	add.w     w0, w8, w8
    1bdc:	e0 84 4c    	addc.w    w9, #0x0, w9
    1bde:	0a 45 e8    	inc.b     w10, w10
    1be0:	0c 80 fb    	ze        w12, w0
    1be2:	7d 00 b8    	mul.uu    w0, #0x1d, w0
    1be4:	ab f2 07    	rcall     0x13c <___delay32> <.init>
    1be6:	8a cf 55    	sub.b     w11, w10, [w15]
    1be8:	f6 ff 3e    	bra       GTU, 0x1bd6 <.L240>
    1bea:	0b 41 78    	mov.b     w11, w2
    1bec:	08 00 37    	bra       0x1bfe <.L239>

00001bee <.L241>:
    1bee:	10 c0 b3    	mov.b     #0x1, w0
    1bf0:	fb fc 07    	rcall     0x15e8 <_FC_CAL_ADC_Sample>
    1bf2:	08 04 40    	add.w     w0, w8, w8
    1bf4:	e0 84 4c    	addc.w    w9, #0x0, w9
    1bf6:	0a 45 e8    	inc.b     w10, w10
    1bf8:	8a cf 55    	sub.b     w11, w10, [w15]
    1bfa:	f9 ff 3e    	bra       GTU, 0x1bee <.L241>
    1bfc:	0b 41 78    	mov.b     w11, w2

00001bfe <.L239>:
    1bfe:	02 81 fb    	ze        w2, w2
    1c00:	80 01 eb    	clr.w     w3
    1c02:	08 00 be    	mov.d     w8, w0
    1c04:	e1 f2 07    	rcall     0x1c8 <___udivsi3> <.libm>
    1c06:	4f 06 78    	mov.w     [--w15], w12
    1c08:	4f 05 be    	mov.d     [--w15], w10
    1c0a:	4f 04 be    	mov.d     [--w15], w8
    1c0c:	00 00 06    	return    

00001c0e <_FCD_08f41_adc_base__GetAverageInt>:
    1c0e:	88 9f be    	mov.d     w8, [w15++]
    1c10:	80 44 78    	mov.b     w0, w9
    1c12:	01 44 78    	mov.b     w1, w8
    1c14:	83 c2 b3    	mov.b     #0x28, w3
    1c16:	00 41 eb    	clr.b     w2
    1c18:	31 c0 b3    	mov.b     #0x3, w1
    1c1a:	90 c0 b3    	mov.b     #0x9, w0
    1c1c:	be fc 07    	rcall     0x159a <_FC_CAL_ADC_Enable>
    1c1e:	88 40 78    	mov.b     w8, w1
    1c20:	09 40 78    	mov.b     w9, w0
    1c22:	c7 ff 07    	rcall     0x1bb2 <_FCD_08f41_adc_base__RawAverageInt>
    1c24:	00 04 78    	mov.w     w0, w8
    1c26:	f1 fc 07    	rcall     0x160a <_FC_CAL_ADC_Disable>
    1c28:	08 00 78    	mov.w     w8, w0
    1c2a:	4f 04 be    	mov.d     [--w15], w8
    1c2c:	00 00 06    	return    

00001c2e <_FCD_08f41_adc_base__GetVoltage>:
    1c2e:	88 1f 78    	mov.w     w8, [w15++]
    1c30:	83 c2 b3    	mov.b     #0x28, w3
    1c32:	00 41 eb    	clr.b     w2
    1c34:	31 c0 b3    	mov.b     #0x3, w1
    1c36:	90 c0 b3    	mov.b     #0x9, w0
    1c38:	b0 fc 07    	rcall     0x159a <_FC_CAL_ADC_Enable>
    1c3a:	10 c0 b3    	mov.b     #0x1, w0
    1c3c:	d5 fc 07    	rcall     0x15e8 <_FC_CAL_ADC_Sample>
    1c3e:	00 04 78    	mov.w     w0, w8
    1c40:	e4 fc 07    	rcall     0x160a <_FC_CAL_ADC_Disable>
    1c42:	61 40 b8    	mul.uu    w8, #0x1, w0
    1c44:	02 f4 07    	rcall     0x44a <___floatunsisf> <.libm>
    1c46:	03 f4 07    	rcall     0x44e <___extendsfdf2> <.libm>
    1c48:	14 d8 2e    	mov.w     #0xed81, w4
    1c4a:	05 46 2c    	mov.w     #0xc460, w5
    1c4c:	e6 13 20    	mov.w     #0x13e, w6
    1c4e:	47 f5 23    	mov.w     #0x3f54, w7
    1c50:	cb f2 07    	rcall     0x1e8 <___muldf3> <.libm>
    1c52:	4f 04 78    	mov.w     [--w15], w8
    1c54:	00 00 06    	return    

00001c56 <_FCD_08f41_adc_base__GetString>:
    1c56:	88 9f be    	mov.d     w8, [w15++]
    1c58:	80 04 78    	mov.w     w0, w9
    1c5a:	01 04 78    	mov.w     w1, w8
    1c5c:	e8 ff 07    	rcall     0x1c2e <_FCD_08f41_adc_base__GetVoltage>
    1c5e:	08 03 78    	mov.w     w8, w6
    1c60:	89 02 78    	mov.w     w9, w5
    1c62:	64 c0 b3    	mov.b     #0x6, w4
    1c64:	63 fb 07    	rcall     0x132c <_FCI_FLOAT_TO_STRING>
    1c66:	4f 04 be    	mov.d     [--w15], w8
    1c68:	00 00 06    	return    

00001c6a <_FCD_08f41_adc_base__RawEnable>:
    1c6a:	83 c2 b3    	mov.b     #0x28, w3
    1c6c:	00 41 eb    	clr.b     w2
    1c6e:	31 c0 b3    	mov.b     #0x3, w1
    1c70:	90 c0 b3    	mov.b     #0x9, w0
    1c72:	93 fc 37    	bra       0x159a <_FC_CAL_ADC_Enable>

00001c74 <_FCD_08f41_adc_base__RawSampleByte>:
    1c74:	00 40 eb    	clr.b     w0
    1c76:	b8 fc 37    	bra       0x15e8 <_FC_CAL_ADC_Sample>

00001c78 <_FCD_08f41_adc_base__GetInt>:
    1c78:	88 1f 78    	mov.w     w8, [w15++]
    1c7a:	83 c2 b3    	mov.b     #0x28, w3
    1c7c:	00 41 eb    	clr.b     w2
    1c7e:	31 c0 b3    	mov.b     #0x3, w1
    1c80:	90 c0 b3    	mov.b     #0x9, w0
    1c82:	8b fc 07    	rcall     0x159a <_FC_CAL_ADC_Enable>
    1c84:	10 c0 b3    	mov.b     #0x1, w0
    1c86:	b0 fc 07    	rcall     0x15e8 <_FC_CAL_ADC_Sample>
    1c88:	00 04 78    	mov.w     w0, w8
    1c8a:	bf fc 07    	rcall     0x160a <_FC_CAL_ADC_Disable>
    1c8c:	08 00 78    	mov.w     w8, w0
    1c8e:	4f 04 78    	mov.w     [--w15], w8
    1c90:	00 00 06    	return    

00001c92 <_FCD_08f41_adc_base__RawDisable>:
    1c92:	bb fc 37    	bra       0x160a <_FC_CAL_ADC_Disable>

00001c94 <_FCD_08f41_adc_base__GetByte>:
    1c94:	88 1f 78    	mov.w     w8, [w15++]
    1c96:	83 c2 b3    	mov.b     #0x28, w3
    1c98:	00 41 eb    	clr.b     w2
    1c9a:	31 c0 b3    	mov.b     #0x3, w1
    1c9c:	90 c0 b3    	mov.b     #0x9, w0
    1c9e:	7d fc 07    	rcall     0x159a <_FC_CAL_ADC_Enable>
    1ca0:	00 40 eb    	clr.b     w0
    1ca2:	a2 fc 07    	rcall     0x15e8 <_FC_CAL_ADC_Sample>
    1ca4:	00 04 78    	mov.w     w0, w8
    1ca6:	b1 fc 07    	rcall     0x160a <_FC_CAL_ADC_Disable>
    1ca8:	08 40 78    	mov.b     w8, w0
    1caa:	4f 04 78    	mov.w     [--w15], w8
    1cac:	00 00 06    	return    

00001cae <_FCM_Timer2_Interrupt>:
    1cae:	31 43 80    	mov.w     0x866, w1
    1cb0:	60 73 80    	mov.w     0xe6c, w0
    1cb2:	12 74 80    	mov.w     0xe82, w2
    1cb4:	00 80 40    	add.w     w1, w0, w0
    1cb6:	11 00 09    	repeat    #0x11
    1cb8:	02 80 d8    	div.uw    w0, w2
    1cba:	31 43 88    	mov.w     w1, 0x866
    1cbc:	30 43 80    	mov.w     0x866, w0
    1cbe:	00 00 40    	add.w     w0, w0, w0
    1cc0:	e1 df 28    	mov.w     #0x8dfe, w1
    1cc2:	e1 00 78    	mov.w     [w1+w0], w1
    1cc4:	91 73 88    	mov.w     w1, 0xe72
    1cc6:	e0 41 80    	mov.w     0x83c, w0
    1cc8:	e3 0f 50    	sub.w     w0, #0x3, [w15]
    1cca:	0c 00 3a    	bra       NZ, 0x1ce4 <.L252>
    1ccc:	80 43 80    	mov.w     0x870, w0
    1cce:	00 00 40    	add.w     w0, w0, w0
    1cd0:	a1 c0 28    	mov.w     #0x8c0a, w1
    1cd2:	e1 00 78    	mov.w     [w1+w0], w1
    1cd4:	c1 40 88    	mov.w     w1, 0x818
    1cd6:	80 43 80    	mov.w     0x870, w0
    1cd8:	12 74 80    	mov.w     0xe82, w2
    1cda:	00 00 e8    	inc.w     w0, w0
    1cdc:	11 00 09    	repeat    #0x11
    1cde:	02 80 d8    	div.uw    w0, w2
    1ce0:	81 43 88    	mov.w     w1, 0x870
    1ce2:	00 00 06    	return    

00001ce4 <.L252>:
    1ce4:	3c 28 ec    	inc.w     0x83c
    1ce6:	00 00 06    	return    

00001ce8 <_FCM_timer3_interrupt>:
    1ce8:	88 9f be    	mov.d     w8, [w15++]
    1cea:	8a 9f be    	mov.d     w10, [w15++]
    1cec:	48 48 e2    	cp0.b     0x848
    1cee:	1a 00 32    	bra       Z, 0x1d24 <.L255>
    1cf0:	25 ff 07    	rcall     0x1b3c <_FCD_08f41_adc_base__RawSampleInt>
    1cf2:	20 73 88    	mov.w     w0, 0xe64
    1cf4:	20 73 80    	mov.w     0xe64, w0
    1cf6:	48 00 de    	lsr.w     w0, #0x8, w0
    1cf8:	20 73 88    	mov.w     w0, 0xe64
    1cfa:	64 2e ec    	inc.w     0xe64
    1cfc:	80 72 80    	mov.w     0xe50, w0
    1cfe:	64 0e e3    	cp.w      0xe64
    1d00:	f9 00 32    	bra       Z, 0x1ef4 <.L254>
    1d02:	64 0e f8    	push      0xe64
    1d04:	50 0e f9    	pop       0xe50
    1d06:	10 c0 b3    	mov.b     #0x1, w0
    1d08:	41 fe 07    	rcall     0x198c <_FCD_04071_LCD__ClearLine>
    1d0a:	01 01 20    	mov.w     #0x10, w1
    1d0c:	10 b7 28    	mov.w     #0x8b71, w0
    1d0e:	53 fe 07    	rcall     0x19b6 <_FCD_04071_LCD__PrintString>
    1d10:	41 c1 b3    	mov.b     #0x14, w1
    1d12:	a0 c0 b3    	mov.b     #0xa, w0
    1d14:	31 fe 07    	rcall     0x1978 <_FCD_04071_LCD__Cursor>
    1d16:	80 72 80    	mov.w     0xe50, w0
    1d18:	80 00 eb    	clr.w     w1
    1d1a:	12 c0 b3    	mov.b     #0x1, w2
    1d1c:	5e fe 07    	rcall     0x19da <_FCD_04071_LCD__PrintFormattedNumber>
    1d1e:	64 0e f8    	push      0xe64
    1d20:	6c 0e f9    	pop       0xe6c
    1d22:	e8 00 37    	bra       0x1ef4 <.L254>

00001d24 <.L255>:
    1d24:	44 48 e2    	cp0.b     0x844
    1d26:	1d 00 32    	bra       Z, 0x1d62 <.L257>
    1d28:	68 c8 bf    	mov.b     0x868, WREG
    1d2a:	e1 4f 50    	sub.b     w0, #0x1, [w15]
    1d2c:	e3 00 3a    	bra       NZ, 0x1ef4 <.L254>
    1d2e:	06 ff 07    	rcall     0x1b3c <_FCD_08f41_adc_base__RawSampleInt>
    1d30:	20 73 88    	mov.w     w0, 0xe64
    1d32:	20 73 80    	mov.w     0xe64, w0
    1d34:	48 00 de    	lsr.w     w0, #0x8, w0
    1d36:	20 73 88    	mov.w     w0, 0xe64
    1d38:	64 2e ec    	inc.w     0xe64
    1d3a:	80 72 80    	mov.w     0xe50, w0
    1d3c:	64 0e e3    	cp.w      0xe64
    1d3e:	da 00 32    	bra       Z, 0x1ef4 <.L254>
    1d40:	64 0e f8    	push      0xe64
    1d42:	50 0e f9    	pop       0xe50
    1d44:	10 c0 b3    	mov.b     #0x1, w0
    1d46:	22 fe 07    	rcall     0x198c <_FCD_04071_LCD__ClearLine>
    1d48:	01 01 20    	mov.w     #0x10, w1
    1d4a:	10 b7 28    	mov.w     #0x8b71, w0
    1d4c:	34 fe 07    	rcall     0x19b6 <_FCD_04071_LCD__PrintString>
    1d4e:	41 c1 b3    	mov.b     #0x14, w1
    1d50:	a0 c0 b3    	mov.b     #0xa, w0
    1d52:	12 fe 07    	rcall     0x1978 <_FCD_04071_LCD__Cursor>
    1d54:	80 72 80    	mov.w     0xe50, w0
    1d56:	80 00 eb    	clr.w     w1
    1d58:	12 c0 b3    	mov.b     #0x1, w2
    1d5a:	3f fe 07    	rcall     0x19da <_FCD_04071_LCD__PrintFormattedNumber>
    1d5c:	64 0e f8    	push      0xe64
    1d5e:	6c 0e f9    	pop       0xe6c
    1d60:	c9 00 37    	bra       0x1ef4 <.L254>

00001d62 <.L257>:
    1d62:	40 48 e2    	cp0.b     0x840
    1d64:	1a 00 32    	bra       Z, 0x1d9a <.L258>
    1d66:	1b 48 e2    	cp0.b     0x81b
    1d68:	c5 00 3a    	bra       NZ, 0x1ef4 <.L254>
    1d6a:	e8 fe 07    	rcall     0x1b3c <_FCD_08f41_adc_base__RawSampleInt>
    1d6c:	90 40 88    	mov.w     w0, 0x812
    1d6e:	90 40 80    	mov.w     0x812, w0
    1d70:	44 00 de    	lsr.w     w0, #0x4, w0
    1d72:	90 40 88    	mov.w     w0, 0x812
    1d74:	12 a8 ec    	inc2.w    0x812
    1d76:	80 72 80    	mov.w     0xe50, w0
    1d78:	12 08 e3    	cp.w      0x812
    1d7a:	bc 00 32    	bra       Z, 0x1ef4 <.L254>
    1d7c:	12 08 f8    	push      0x812
    1d7e:	50 0e f9    	pop       0xe50
    1d80:	10 c0 b3    	mov.b     #0x1, w0
    1d82:	04 fe 07    	rcall     0x198c <_FCD_04071_LCD__ClearLine>
    1d84:	01 01 20    	mov.w     #0x10, w1
    1d86:	b0 b7 28    	mov.w     #0x8b7b, w0
    1d88:	16 fe 07    	rcall     0x19b6 <_FCD_04071_LCD__PrintString>
    1d8a:	41 c1 b3    	mov.b     #0x14, w1
    1d8c:	a0 c0 b3    	mov.b     #0xa, w0
    1d8e:	f4 fd 07    	rcall     0x1978 <_FCD_04071_LCD__Cursor>
    1d90:	80 72 80    	mov.w     0xe50, w0
    1d92:	80 00 eb    	clr.w     w1
    1d94:	12 c0 b3    	mov.b     #0x1, w2
    1d96:	21 fe 07    	rcall     0x19da <_FCD_04071_LCD__PrintFormattedNumber>
    1d98:	ad 00 37    	bra       0x1ef4 <.L254>

00001d9a <.L258>:
    1d9a:	3a 48 e2    	cp0.b     0x83a
    1d9c:	ab 00 32    	bra       Z, 0x1ef4 <.L254>
    1d9e:	ce fe 07    	rcall     0x1b3c <_FCD_08f41_adc_base__RawSampleInt>
    1da0:	f0 73 88    	mov.w     w0, 0xe7e
    1da2:	7e 2e d5    	lsr.w     0xe7e
    1da4:	f0 73 80    	mov.w     0xe7e, w0
    1da6:	00 00 40    	add.w     w0, w0, w0
    1da8:	f0 73 88    	mov.w     w0, 0xe7e
    1daa:	c0 12 20    	mov.w     #0x12c, w0
    1dac:	7e 2e b4    	add.w     0xe7e
    1dae:	80 72 80    	mov.w     0xe50, w0
    1db0:	7e 0e e3    	cp.w      0xe7e
    1db2:	a0 00 32    	bra       Z, 0x1ef4 <.L254>
    1db4:	7e 0e f8    	push      0xe7e
    1db6:	50 0e f9    	pop       0xe50
    1db8:	10 c0 b3    	mov.b     #0x1, w0
    1dba:	e8 fd 07    	rcall     0x198c <_FCD_04071_LCD__ClearLine>
    1dbc:	01 01 20    	mov.w     #0x10, w1
    1dbe:	10 b7 28    	mov.w     #0x8b71, w0
    1dc0:	fa fd 07    	rcall     0x19b6 <_FCD_04071_LCD__PrintString>
    1dc2:	41 c1 b3    	mov.b     #0x14, w1
    1dc4:	a0 c0 b3    	mov.b     #0xa, w0
    1dc6:	d8 fd 07    	rcall     0x1978 <_FCD_04071_LCD__Cursor>
    1dc8:	80 72 80    	mov.w     0xe50, w0
    1dca:	16 fe 07    	rcall     0x19f8 <_FCD_04071_LCD__PrintNumber>
    1dcc:	f0 73 80    	mov.w     0xe7e, w0
    1dce:	80 00 eb    	clr.w     w1
    1dd0:	3c f3 07    	rcall     0x44a <___floatunsisf> <.libm>
    1dd2:	3d f3 07    	rcall     0x44e <___extendsfdf2> <.libm>
    1dd4:	74 8a 2e    	mov.w     #0xe8a7, w4
    1dd6:	85 e4 22    	mov.w     #0x2e48, w5
    1dd8:	f6 1f 22    	mov.w     #0x21ff, w6
    1dda:	97 00 24    	mov.w     #0x4009, w7
    1ddc:	05 f2 07    	rcall     0x1e8 <___muldf3> <.libm>
    1dde:	60 22 b8    	mul.uu    w4, #0x0, w4
    1de0:	06 00 27    	mov.w     #0x7000, w6
    1de2:	77 0d 24    	mov.w     #0x40d7, w7
    1de4:	53 f3 07    	rcall     0x48c <___divdf3> <.libm>
    1de6:	ac f3 07    	rcall     0x540 <_sin> <_sinl> <.libm>
    1de8:	00 02 be    	mov.d     w0, w4
    1dea:	02 03 be    	mov.d     w2, w6
    1dec:	77 f2 07    	rcall     0x2dc <___adddf3> <.libm>
    1dee:	10 40 88    	mov.w     w0, 0x802
    1df0:	21 40 88    	mov.w     w1, 0x804
    1df2:	32 40 88    	mov.w     w2, 0x806
    1df4:	43 40 88    	mov.w     w3, 0x808
    1df6:	90 74 80    	mov.w     0xe92, w0
    1df8:	80 00 eb    	clr.w     w1
    1dfa:	27 f3 07    	rcall     0x44a <___floatunsisf> <.libm>
    1dfc:	28 f3 07    	rcall     0x44e <___extendsfdf2> <.libm>
    1dfe:	00 02 be    	mov.d     w0, w4
    1e00:	02 03 be    	mov.d     w2, w6
    1e02:	60 00 b8    	mul.uu    w0, #0x0, w0
    1e04:	02 00 20    	mov.w     #0x0, w2
    1e06:	03 ff 23    	mov.w     #0x3ff0, w3
    1e08:	41 f3 07    	rcall     0x48c <___divdf3> <.libm>
    1e0a:	90 41 88    	mov.w     w0, 0x832
    1e0c:	a1 41 88    	mov.w     w1, 0x834
    1e0e:	b2 41 88    	mov.w     w2, 0x836
    1e10:	c3 41 88    	mov.w     w3, 0x838
    1e12:	10 40 80    	mov.w     0x802, w0
    1e14:	21 40 80    	mov.w     0x804, w1
    1e16:	32 40 80    	mov.w     0x806, w2
    1e18:	43 40 80    	mov.w     0x808, w3
    1e1a:	94 41 80    	mov.w     0x832, w4
    1e1c:	a5 41 80    	mov.w     0x834, w5
    1e1e:	b6 41 80    	mov.w     0x836, w6
    1e20:	c7 41 80    	mov.w     0x838, w7
    1e22:	e2 f1 07    	rcall     0x1e8 <___muldf3> <.libm>
    1e24:	00 02 be    	mov.d     w0, w4
    1e26:	02 03 be    	mov.d     w2, w6
    1e28:	60 00 b8    	mul.uu    w0, #0x0, w0
    1e2a:	02 00 20    	mov.w     #0x0, w2
    1e2c:	03 ff 23    	mov.w     #0x3ff0, w3
    1e2e:	08 f3 07    	rcall     0x440 <___subdf3> <.libm>
    1e30:	d0 42 88    	mov.w     w0, 0x85a
    1e32:	e1 42 88    	mov.w     w1, 0x85c
    1e34:	f2 42 88    	mov.w     w2, 0x85e
    1e36:	03 43 88    	mov.w     w3, 0x860
    1e38:	90 41 80    	mov.w     0x832, w0
    1e3a:	a1 41 80    	mov.w     0x834, w1
    1e3c:	b2 41 80    	mov.w     0x836, w2
    1e3e:	c3 41 80    	mov.w     0x838, w3
    1e40:	81 f3 07    	rcall     0x544 <_sqrt> <_sqrtl> <.libm>
    1e42:	00 41 88    	mov.w     w0, 0x820
    1e44:	11 41 88    	mov.w     w1, 0x822
    1e46:	22 41 88    	mov.w     w2, 0x824
    1e48:	33 41 88    	mov.w     w3, 0x826
    1e4a:	10 40 80    	mov.w     0x802, w0
    1e4c:	21 40 80    	mov.w     0x804, w1
    1e4e:	32 40 80    	mov.w     0x806, w2
    1e50:	43 40 80    	mov.w     0x808, w3
    1e52:	04 41 80    	mov.w     0x820, w4
    1e54:	15 41 80    	mov.w     0x822, w5
    1e56:	26 41 80    	mov.w     0x824, w6
    1e58:	37 41 80    	mov.w     0x826, w7
    1e5a:	c6 f1 07    	rcall     0x1e8 <___muldf3> <.libm>
    1e5c:	c0 44 88    	mov.w     w0, 0x898
    1e5e:	d1 44 88    	mov.w     w1, 0x89a
    1e60:	e2 44 88    	mov.w     w2, 0x89c
    1e62:	f3 44 88    	mov.w     w3, 0x89e
    1e64:	c0 44 80    	mov.w     0x898, w0
    1e66:	d1 44 80    	mov.w     0x89a, w1
    1e68:	e2 44 80    	mov.w     0x89c, w2
    1e6a:	f3 44 80    	mov.w     0x89e, w3
    1e6c:	00 45 88    	mov.w     w0, 0x8a0
    1e6e:	11 45 88    	mov.w     w1, 0x8a2
    1e70:	22 45 88    	mov.w     w2, 0x8a4
    1e72:	33 45 88    	mov.w     w3, 0x8a6
    1e74:	10 40 80    	mov.w     0x802, w0
    1e76:	21 40 80    	mov.w     0x804, w1
    1e78:	32 40 80    	mov.w     0x806, w2
    1e7a:	43 40 80    	mov.w     0x808, w3
    1e7c:	14 40 80    	mov.w     0x802, w4
    1e7e:	25 40 80    	mov.w     0x804, w5
    1e80:	36 40 80    	mov.w     0x806, w6
    1e82:	47 40 80    	mov.w     0x808, w7
    1e84:	d8 42 80    	mov.w     0x85a, w8
    1e86:	e9 42 80    	mov.w     0x85c, w9
    1e88:	fa 42 80    	mov.w     0x85e, w10
    1e8a:	0b 43 80    	mov.w     0x860, w11
    1e8c:	ad f1 07    	rcall     0x1e8 <___muldf3> <.libm>
    1e8e:	08 02 be    	mov.d     w8, w4
    1e90:	0a 03 be    	mov.d     w10, w6
    1e92:	d6 f2 07    	rcall     0x440 <___subdf3> <.libm>
    1e94:	60 22 b8    	mul.uu    w4, #0x0, w4
    1e96:	06 00 20    	mov.w     #0x0, w6
    1e98:	07 ff 23    	mov.w     #0x3ff0, w7
    1e9a:	d2 f2 07    	rcall     0x440 <___subdf3> <.libm>
    1e9c:	a0 71 88    	mov.w     w0, 0xe34
    1e9e:	b1 71 88    	mov.w     w1, 0xe36
    1ea0:	c2 71 88    	mov.w     w2, 0xe38
    1ea2:	d3 71 88    	mov.w     w3, 0xe3a
    1ea4:	d0 42 80    	mov.w     0x85a, w0
    1ea6:	e1 42 80    	mov.w     0x85c, w1
    1ea8:	f2 42 80    	mov.w     0x85e, w2
    1eaa:	03 43 80    	mov.w     0x860, w3
    1eac:	e0 71 88    	mov.w     w0, 0xe3c
    1eae:	f1 71 88    	mov.w     w1, 0xe3e
    1eb0:	02 72 88    	mov.w     w2, 0xe40
    1eb2:	13 72 88    	mov.w     w3, 0xe42
    1eb4:	c0 44 80    	mov.w     0x898, w0
    1eb6:	d1 44 80    	mov.w     0x89a, w1
    1eb8:	e2 44 80    	mov.w     0x89c, w2
    1eba:	f3 44 80    	mov.w     0x89e, w3
    1ebc:	60 22 b8    	mul.uu    w4, #0x0, w4
    1ebe:	06 00 20    	mov.w     #0x0, w6
    1ec0:	07 0c 24    	mov.w     #0x40c0, w7
    1ec2:	92 f1 07    	rcall     0x1e8 <___muldf3> <.libm>
    1ec4:	91 f2 07    	rcall     0x3e8 <___fixdfsi> <.libm>
    1ec6:	80 45 88    	mov.w     w0, 0x8b0
    1ec8:	b0 08 f8    	push      0x8b0
    1eca:	b2 08 f9    	pop       0x8b2
    1ecc:	a0 71 80    	mov.w     0xe34, w0
    1ece:	b1 71 80    	mov.w     0xe36, w1
    1ed0:	c2 71 80    	mov.w     0xe38, w2
    1ed2:	d3 71 80    	mov.w     0xe3a, w3
    1ed4:	60 22 b8    	mul.uu    w4, #0x0, w4
    1ed6:	06 00 20    	mov.w     #0x0, w6
    1ed8:	07 0c 24    	mov.w     #0x40c0, w7
    1eda:	86 f1 07    	rcall     0x1e8 <___muldf3> <.libm>
    1edc:	85 f2 07    	rcall     0x3e8 <___fixdfsi> <.libm>
    1ede:	a0 45 88    	mov.w     w0, 0x8b4
    1ee0:	e0 71 80    	mov.w     0xe3c, w0
    1ee2:	f1 71 80    	mov.w     0xe3e, w1
    1ee4:	02 72 80    	mov.w     0xe40, w2
    1ee6:	13 72 80    	mov.w     0xe42, w3
    1ee8:	60 22 b8    	mul.uu    w4, #0x0, w4
    1eea:	06 00 20    	mov.w     #0x0, w6
    1eec:	07 0c 24    	mov.w     #0x40c0, w7
    1eee:	7c f1 07    	rcall     0x1e8 <___muldf3> <.libm>
    1ef0:	7b f2 07    	rcall     0x3e8 <___fixdfsi> <.libm>
    1ef2:	b0 45 88    	mov.w     w0, 0x8b6

00001ef4 <.L254>:
    1ef4:	4f 05 be    	mov.d     [--w15], w10
    1ef6:	4f 04 be    	mov.d     [--w15], w8
    1ef8:	00 00 06    	return    

00001efa <_FCM_buttonReadIn>:
    1efa:	80 41 eb    	clr.b     w3
    1efc:	12 00 20    	mov.w     #0x1, w2
    1efe:	61 2c 20    	mov.w     #0x2c6, w1
    1f00:	80 2c 20    	mov.w     #0x2c8, w0
    1f02:	c2 fa 07    	rcall     0x1488 <_FC_CAL_Port_In_DDR__x>
    1f04:	00 f0 a7    	btsc.w    w0, #0xf
    1f06:	00 00 ea    	neg.w     w0, w0
    1f08:	00 00 ea    	neg.w     w0, w0
    1f0a:	4f 00 de    	lsr.w     w0, #0xf, w0
    1f0c:	72 e8 b7    	mov.b     WREG, 0x872
    1f0e:	13 c0 b3    	mov.b     #0x1, w3
    1f10:	22 00 20    	mov.w     #0x2, w2
    1f12:	61 2c 20    	mov.w     #0x2c6, w1
    1f14:	80 2c 20    	mov.w     #0x2c8, w0
    1f16:	b8 fa 07    	rcall     0x1488 <_FC_CAL_Port_In_DDR__x>
    1f18:	00 f0 a7    	btsc.w    w0, #0xf
    1f1a:	00 00 ea    	neg.w     w0, w0
    1f1c:	00 00 ea    	neg.w     w0, w0
    1f1e:	4f 00 de    	lsr.w     w0, #0xf, w0
    1f20:	00 e8 b7    	mov.b     WREG, 0x800
    1f22:	23 c0 b3    	mov.b     #0x2, w3
    1f24:	42 00 20    	mov.w     #0x4, w2
    1f26:	61 2c 20    	mov.w     #0x2c6, w1
    1f28:	80 2c 20    	mov.w     #0x2c8, w0
    1f2a:	ae fa 07    	rcall     0x1488 <_FC_CAL_Port_In_DDR__x>
    1f2c:	00 f0 a7    	btsc.w    w0, #0xf
    1f2e:	00 00 ea    	neg.w     w0, w0
    1f30:	00 00 ea    	neg.w     w0, w0
    1f32:	4f 00 de    	lsr.w     w0, #0xf, w0
    1f34:	10 e8 b7    	mov.b     WREG, 0x810
    1f36:	33 c0 b3    	mov.b     #0x3, w3
    1f38:	82 00 20    	mov.w     #0x8, w2
    1f3a:	61 2c 20    	mov.w     #0x2c6, w1
    1f3c:	80 2c 20    	mov.w     #0x2c8, w0
    1f3e:	a4 fa 07    	rcall     0x1488 <_FC_CAL_Port_In_DDR__x>
    1f40:	00 f0 a7    	btsc.w    w0, #0xf
    1f42:	00 00 ea    	neg.w     w0, w0
    1f44:	00 00 ea    	neg.w     w0, w0
    1f46:	4f 00 de    	lsr.w     w0, #0xf, w0
    1f48:	1a e8 b7    	mov.b     WREG, 0x81a
    1f4a:	43 c0 b3    	mov.b     #0x4, w3
    1f4c:	02 01 20    	mov.w     #0x10, w2
    1f4e:	61 2c 20    	mov.w     #0x2c6, w1
    1f50:	80 2c 20    	mov.w     #0x2c8, w0
    1f52:	9a fa 07    	rcall     0x1488 <_FC_CAL_Port_In_DDR__x>
    1f54:	00 f0 a7    	btsc.w    w0, #0xf
    1f56:	00 00 ea    	neg.w     w0, w0
    1f58:	00 00 ea    	neg.w     w0, w0
    1f5a:	4f 00 de    	lsr.w     w0, #0xf, w0
    1f5c:	1f e8 b7    	mov.b     WREG, 0x81f
    1f5e:	53 c0 b3    	mov.b     #0x5, w3
    1f60:	02 02 20    	mov.w     #0x20, w2
    1f62:	61 2c 20    	mov.w     #0x2c6, w1
    1f64:	80 2c 20    	mov.w     #0x2c8, w0
    1f66:	90 fa 07    	rcall     0x1488 <_FC_CAL_Port_In_DDR__x>
    1f68:	00 f0 a7    	btsc.w    w0, #0xf
    1f6a:	00 00 ea    	neg.w     w0, w0
    1f6c:	00 00 ea    	neg.w     w0, w0
    1f6e:	4f 00 de    	lsr.w     w0, #0xf, w0
    1f70:	2d e8 b7    	mov.b     WREG, 0x82d
    1f72:	63 c0 b3    	mov.b     #0x6, w3
    1f74:	02 04 20    	mov.w     #0x40, w2
    1f76:	61 2c 20    	mov.w     #0x2c6, w1
    1f78:	80 2c 20    	mov.w     #0x2c8, w0
    1f7a:	86 fa 07    	rcall     0x1488 <_FC_CAL_Port_In_DDR__x>
    1f7c:	00 f0 a7    	btsc.w    w0, #0xf
    1f7e:	00 00 ea    	neg.w     w0, w0
    1f80:	00 00 ea    	neg.w     w0, w0
    1f82:	4f 00 de    	lsr.w     w0, #0xf, w0
    1f84:	41 e8 b7    	mov.b     WREG, 0x841
    1f86:	73 c0 b3    	mov.b     #0x7, w3
    1f88:	02 08 20    	mov.w     #0x80, w2
    1f8a:	61 2c 20    	mov.w     #0x2c6, w1
    1f8c:	80 2c 20    	mov.w     #0x2c8, w0
    1f8e:	7c fa 07    	rcall     0x1488 <_FC_CAL_Port_In_DDR__x>
    1f90:	00 f0 a7    	btsc.w    w0, #0xf
    1f92:	00 00 ea    	neg.w     w0, w0
    1f94:	00 00 ea    	neg.w     w0, w0
    1f96:	4f 00 de    	lsr.w     w0, #0xf, w0
    1f98:	54 e8 b7    	mov.b     WREG, 0x854
    1f9a:	00 00 06    	return    

00001f9c <_FCM_ButtonInterrupt>:
    1f9c:	88 9f be    	mov.d     w8, [w15++]
    1f9e:	8a 9f be    	mov.d     w10, [w15++]
    1fa0:	ac ff 07    	rcall     0x1efa <_FCM_buttonReadIn>
    1fa2:	72 48 e2    	cp0.b     0x872
    1fa4:	43 00 32    	bra       Z, 0x202c <.L261>
    1fa6:	2c 48 e2    	cp0.b     0x82c
    1fa8:	41 00 3a    	bra       NZ, 0x202c <.L261>
    1faa:	10 c0 b3    	mov.b     #0x1, w0
    1fac:	2c e8 b7    	mov.b     WREG, 0x82c
    1fae:	2e 68 ef    	clr.b     0x82e
    1fb0:	48 48 e2    	cp0.b     0x848
    1fb2:	06 00 3a    	bra       NZ, 0x1fc0 <.L262>
    1fb4:	48 e8 b7    	mov.b     WREG, 0x848
    1fb6:	44 68 ef    	clr.b     0x844
    1fb8:	80 6e ef    	clr.b     0xe80
    1fba:	40 68 ef    	clr.b     0x840
    1fbc:	3a 68 ef    	clr.b     0x83a
    1fbe:	09 00 37    	bra       0x1fd2 <.L263>

00001fc0 <.L262>:
    1fc0:	73 c8 bf    	mov.b     0x873, WREG
    1fc2:	00 80 fb    	ze        w0, w0
    1fc4:	00 00 e8    	inc.w     w0, w0
    1fc6:	22 00 20    	mov.w     #0x2, w2
    1fc8:	11 00 09    	repeat    #0x11
    1fca:	02 00 d8    	div.sw    w0, w2
    1fcc:	01 41 78    	mov.b     w1, w2
    1fce:	30 87 20    	mov.w     #0x873, w0
    1fd0:	02 48 78    	mov.b     w2, [w0]

00001fd2 <.L263>:
    1fd2:	10 c0 b3    	mov.b     #0x1, w0
    1fd4:	db fc 07    	rcall     0x198c <_FCD_04071_LCD__ClearLine>
    1fd6:	73 c8 bf    	mov.b     0x873, WREG
    1fd8:	03 00 32    	bra       Z, 0x1fe0 <.L265>
    1fda:	e1 4f 50    	sub.b     w0, #0x1, [w15]
    1fdc:	e5 00 3a    	bra       NZ, 0x21a8 <.L264>
    1fde:	13 00 37    	bra       0x2006 <.L342>

00001fe0 <.L265>:
    1fe0:	00 40 eb    	clr.b     w0
    1fe2:	d4 fc 07    	rcall     0x198c <_FCD_04071_LCD__ClearLine>
    1fe4:	01 01 20    	mov.w     #0x10, w1
    1fe6:	40 b8 28    	mov.w     #0x8b84, w0
    1fe8:	e6 fc 07    	rcall     0x19b6 <_FCD_04071_LCD__PrintString>
    1fea:	10 c0 b3    	mov.b     #0x1, w0
    1fec:	cf fc 07    	rcall     0x198c <_FCD_04071_LCD__ClearLine>
    1fee:	01 01 20    	mov.w     #0x10, w1
    1ff0:	c0 b8 28    	mov.w     #0x8b8c, w0
    1ff2:	e1 fc 07    	rcall     0x19b6 <_FCD_04071_LCD__PrintString>
    1ff4:	41 c1 b3    	mov.b     #0x14, w1
    1ff6:	a0 c0 b3    	mov.b     #0xa, w0
    1ff8:	bf fc 07    	rcall     0x1978 <_FCD_04071_LCD__Cursor>
    1ffa:	86 ce bf    	mov.b     0xe86, WREG
    1ffc:	00 80 fb    	ze        w0, w0
    1ffe:	fc fc 07    	rcall     0x19f8 <_FCD_04071_LCD__PrintNumber>
    2000:	10 c0 b3    	mov.b     #0x1, w0
    2002:	6e ee b7    	mov.b     WREG, 0xe6e
    2004:	d1 00 37    	bra       0x21a8 <.L264>

00002006 <.L342>:
    2006:	00 40 eb    	clr.b     w0
    2008:	c1 fc 07    	rcall     0x198c <_FCD_04071_LCD__ClearLine>
    200a:	01 01 20    	mov.w     #0x10, w1
    200c:	60 b9 28    	mov.w     #0x8b96, w0
    200e:	d3 fc 07    	rcall     0x19b6 <_FCD_04071_LCD__PrintString>
    2010:	10 c0 b3    	mov.b     #0x1, w0
    2012:	bc fc 07    	rcall     0x198c <_FCD_04071_LCD__ClearLine>
    2014:	01 01 20    	mov.w     #0x10, w1
    2016:	c0 b8 28    	mov.w     #0x8b8c, w0
    2018:	ce fc 07    	rcall     0x19b6 <_FCD_04071_LCD__PrintString>
    201a:	41 c1 b3    	mov.b     #0x14, w1
    201c:	a0 c0 b3    	mov.b     #0xa, w0
    201e:	ac fc 07    	rcall     0x1978 <_FCD_04071_LCD__Cursor>
    2020:	6f ce bf    	mov.b     0xe6f, WREG
    2022:	00 80 fb    	ze        w0, w0
    2024:	e9 fc 07    	rcall     0x19f8 <_FCD_04071_LCD__PrintNumber>
    2026:	10 c0 b3    	mov.b     #0x1, w0
    2028:	6e ee b7    	mov.b     WREG, 0xe6e
    202a:	be 00 37    	bra       0x21a8 <.L264>

0000202c <.L261>:
    202c:	00 48 e2    	cp0.b     0x800
    202e:	40 00 32    	bra       Z, 0x20b0 <.L267>
    2030:	2c 48 e2    	cp0.b     0x82c
    2032:	3e 00 3a    	bra       NZ, 0x20b0 <.L267>
    2034:	10 c0 b3    	mov.b     #0x1, w0
    2036:	2c e8 b7    	mov.b     WREG, 0x82c
    2038:	2e 68 ef    	clr.b     0x82e
    203a:	44 48 e2    	cp0.b     0x844
    203c:	06 00 3a    	bra       NZ, 0x204a <.L268>
    203e:	44 e8 b7    	mov.b     WREG, 0x844
    2040:	48 68 ef    	clr.b     0x848
    2042:	80 6e ef    	clr.b     0xe80
    2044:	40 68 ef    	clr.b     0x840
    2046:	3a 68 ef    	clr.b     0x83a
    2048:	08 00 37    	bra       0x205a <.L269>

0000204a <.L268>:
    204a:	68 c8 bf    	mov.b     0x868, WREG
    204c:	00 80 fb    	ze        w0, w0
    204e:	00 00 e8    	inc.w     w0, w0
    2050:	22 00 20    	mov.w     #0x2, w2
    2052:	11 00 09    	repeat    #0x11
    2054:	02 00 d8    	div.sw    w0, w2
    2056:	01 40 78    	mov.b     w1, w0
    2058:	68 e8 b7    	mov.b     WREG, 0x868

0000205a <.L269>:
    205a:	68 c8 bf    	mov.b     0x868, WREG
    205c:	03 00 32    	bra       Z, 0x2064 <.L270>
    205e:	e1 4f 50    	sub.b     w0, #0x1, [w15]
    2060:	a3 00 3a    	bra       NZ, 0x21a8 <.L264>
    2062:	13 00 37    	bra       0x208a <.L343>

00002064 <.L270>:
    2064:	00 40 eb    	clr.b     w0
    2066:	92 fc 07    	rcall     0x198c <_FCD_04071_LCD__ClearLine>
    2068:	01 01 20    	mov.w     #0x10, w1
    206a:	e0 b9 28    	mov.w     #0x8b9e, w0
    206c:	a4 fc 07    	rcall     0x19b6 <_FCD_04071_LCD__PrintString>
    206e:	10 c0 b3    	mov.b     #0x1, w0
    2070:	8d fc 07    	rcall     0x198c <_FCD_04071_LCD__ClearLine>
    2072:	01 01 20    	mov.w     #0x10, w1
    2074:	50 ba 28    	mov.w     #0x8ba5, w0
    2076:	9f fc 07    	rcall     0x19b6 <_FCD_04071_LCD__PrintString>
    2078:	41 c1 b3    	mov.b     #0x14, w1
    207a:	a0 c0 b3    	mov.b     #0xa, w0
    207c:	7d fc 07    	rcall     0x1978 <_FCD_04071_LCD__Cursor>
    207e:	70 ce bf    	mov.b     0xe70, WREG
    2080:	00 80 fb    	ze        w0, w0
    2082:	ba fc 07    	rcall     0x19f8 <_FCD_04071_LCD__PrintNumber>
    2084:	20 c0 b3    	mov.b     #0x2, w0
    2086:	6e ee b7    	mov.b     WREG, 0xe6e
    2088:	8f 00 37    	bra       0x21a8 <.L264>

0000208a <.L343>:
    208a:	00 40 eb    	clr.b     w0
    208c:	7f fc 07    	rcall     0x198c <_FCD_04071_LCD__ClearLine>
    208e:	01 01 20    	mov.w     #0x10, w1
    2090:	d0 ba 28    	mov.w     #0x8bad, w0
    2092:	91 fc 07    	rcall     0x19b6 <_FCD_04071_LCD__PrintString>
    2094:	10 c0 b3    	mov.b     #0x1, w0
    2096:	7a fc 07    	rcall     0x198c <_FCD_04071_LCD__ClearLine>
    2098:	01 01 20    	mov.w     #0x10, w1
    209a:	c0 b8 28    	mov.w     #0x8b8c, w0
    209c:	8c fc 07    	rcall     0x19b6 <_FCD_04071_LCD__PrintString>
    209e:	41 c1 b3    	mov.b     #0x14, w1
    20a0:	a0 c0 b3    	mov.b     #0xa, w0
    20a2:	6a fc 07    	rcall     0x1978 <_FCD_04071_LCD__Cursor>
    20a4:	86 ce bf    	mov.b     0xe86, WREG
    20a6:	00 80 fb    	ze        w0, w0
    20a8:	a7 fc 07    	rcall     0x19f8 <_FCD_04071_LCD__PrintNumber>
    20aa:	10 c0 b3    	mov.b     #0x1, w0
    20ac:	6e ee b7    	mov.b     WREG, 0xe6e
    20ae:	7c 00 37    	bra       0x21a8 <.L264>

000020b0 <.L267>:
    20b0:	10 48 e2    	cp0.b     0x810
    20b2:	18 00 32    	bra       Z, 0x20e4 <.L272>
    20b4:	2c 48 e2    	cp0.b     0x82c
    20b6:	16 00 3a    	bra       NZ, 0x20e4 <.L272>
    20b8:	80 4e e2    	cp0.b     0xe80
    20ba:	14 00 3a    	bra       NZ, 0x20e4 <.L272>
    20bc:	10 c0 b3    	mov.b     #0x1, w0
    20be:	2c e8 b7    	mov.b     WREG, 0x82c
    20c0:	2e 68 ef    	clr.b     0x82e
    20c2:	80 4e e2    	cp0.b     0xe80
    20c4:	05 00 3a    	bra       NZ, 0x20d0 <.L273>
    20c6:	80 ee b7    	mov.b     WREG, 0xe80
    20c8:	48 68 ef    	clr.b     0x848
    20ca:	44 68 ef    	clr.b     0x844
    20cc:	40 68 ef    	clr.b     0x840
    20ce:	3a 68 ef    	clr.b     0x83a

000020d0 <.L273>:
    20d0:	00 40 eb    	clr.b     w0
    20d2:	5c fc 07    	rcall     0x198c <_FCD_04071_LCD__ClearLine>
    20d4:	01 01 20    	mov.w     #0x10, w1
    20d6:	50 bb 28    	mov.w     #0x8bb5, w0
    20d8:	6e fc 07    	rcall     0x19b6 <_FCD_04071_LCD__PrintString>
    20da:	10 c0 b3    	mov.b     #0x1, w0
    20dc:	57 fc 07    	rcall     0x198c <_FCD_04071_LCD__ClearLine>
    20de:	10 c0 b3    	mov.b     #0x1, w0
    20e0:	6e ee b7    	mov.b     WREG, 0xe6e
    20e2:	62 00 37    	bra       0x21a8 <.L264>

000020e4 <.L272>:
    20e4:	1a 48 e2    	cp0.b     0x81a
    20e6:	3f 00 32    	bra       Z, 0x2166 <.L274>
    20e8:	2c 48 e2    	cp0.b     0x82c
    20ea:	3d 00 3a    	bra       NZ, 0x2166 <.L274>
    20ec:	10 c0 b3    	mov.b     #0x1, w0
    20ee:	2c e8 b7    	mov.b     WREG, 0x82c
    20f0:	2e 68 ef    	clr.b     0x82e
    20f2:	40 48 e2    	cp0.b     0x840
    20f4:	06 00 3a    	bra       NZ, 0x2102 <.L275>
    20f6:	40 e8 b7    	mov.b     WREG, 0x840
    20f8:	48 68 ef    	clr.b     0x848
    20fa:	44 68 ef    	clr.b     0x844
    20fc:	80 6e ef    	clr.b     0xe80
    20fe:	3a 68 ef    	clr.b     0x83a
    2100:	09 00 37    	bra       0x2114 <.L276>

00002102 <.L275>:
    2102:	1b c8 bf    	mov.b     0x81b, WREG
    2104:	00 80 fb    	ze        w0, w0
    2106:	00 00 e8    	inc.w     w0, w0
    2108:	22 00 20    	mov.w     #0x2, w2
    210a:	11 00 09    	repeat    #0x11
    210c:	02 00 d8    	div.sw    w0, w2
    210e:	81 41 78    	mov.b     w1, w3
    2110:	b2 81 20    	mov.w     #0x81b, w2
    2112:	03 49 78    	mov.b     w3, [w2]

00002114 <.L276>:
    2114:	1b c8 bf    	mov.b     0x81b, WREG
    2116:	03 00 32    	bra       Z, 0x211e <.L277>
    2118:	e1 4f 50    	sub.b     w0, #0x1, [w15]
    211a:	46 00 3a    	bra       NZ, 0x21a8 <.L264>
    211c:	12 00 37    	bra       0x2142 <.L344>

0000211e <.L277>:
    211e:	00 40 eb    	clr.b     w0
    2120:	35 fc 07    	rcall     0x198c <_FCD_04071_LCD__ClearLine>
    2122:	01 01 20    	mov.w     #0x10, w1
    2124:	c0 bb 28    	mov.w     #0x8bbc, w0
    2126:	47 fc 07    	rcall     0x19b6 <_FCD_04071_LCD__PrintString>
    2128:	10 c0 b3    	mov.b     #0x1, w0
    212a:	30 fc 07    	rcall     0x198c <_FCD_04071_LCD__ClearLine>
    212c:	01 01 20    	mov.w     #0x10, w1
    212e:	80 bc 28    	mov.w     #0x8bc8, w0
    2130:	42 fc 07    	rcall     0x19b6 <_FCD_04071_LCD__PrintString>
    2132:	41 c1 b3    	mov.b     #0x14, w1
    2134:	a0 c0 b3    	mov.b     #0xa, w0
    2136:	20 fc 07    	rcall     0x1978 <_FCD_04071_LCD__Cursor>
    2138:	20 74 80    	mov.w     0xe84, w0
    213a:	5e fc 07    	rcall     0x19f8 <_FCD_04071_LCD__PrintNumber>
    213c:	10 c0 b3    	mov.b     #0x1, w0
    213e:	6e ee b7    	mov.b     WREG, 0xe6e
    2140:	33 00 37    	bra       0x21a8 <.L264>

00002142 <.L344>:
    2142:	00 40 eb    	clr.b     w0
    2144:	23 fc 07    	rcall     0x198c <_FCD_04071_LCD__ClearLine>
    2146:	01 01 20    	mov.w     #0x10, w1
    2148:	e0 bc 28    	mov.w     #0x8bce, w0
    214a:	35 fc 07    	rcall     0x19b6 <_FCD_04071_LCD__PrintString>
    214c:	10 c0 b3    	mov.b     #0x1, w0
    214e:	1e fc 07    	rcall     0x198c <_FCD_04071_LCD__ClearLine>
    2150:	01 01 20    	mov.w     #0x10, w1
    2152:	90 bd 28    	mov.w     #0x8bd9, w0
    2154:	30 fc 07    	rcall     0x19b6 <_FCD_04071_LCD__PrintString>
    2156:	41 c1 b3    	mov.b     #0x14, w1
    2158:	a0 c0 b3    	mov.b     #0xa, w0
    215a:	0e fc 07    	rcall     0x1978 <_FCD_04071_LCD__Cursor>
    215c:	c0 73 80    	mov.w     0xe78, w0
    215e:	4c fc 07    	rcall     0x19f8 <_FCD_04071_LCD__PrintNumber>
    2160:	30 c0 b3    	mov.b     #0x3, w0
    2162:	6e ee b7    	mov.b     WREG, 0xe6e
    2164:	21 00 37    	bra       0x21a8 <.L264>

00002166 <.L274>:
    2166:	1f 48 e2    	cp0.b     0x81f
    2168:	1f 00 32    	bra       Z, 0x21a8 <.L264>
    216a:	2c 48 e2    	cp0.b     0x82c
    216c:	1d 00 3a    	bra       NZ, 0x21a8 <.L264>
    216e:	3a 48 e2    	cp0.b     0x83a
    2170:	1b 00 3a    	bra       NZ, 0x21a8 <.L264>
    2172:	10 c0 b3    	mov.b     #0x1, w0
    2174:	2c e8 b7    	mov.b     WREG, 0x82c
    2176:	2e 68 ef    	clr.b     0x82e
    2178:	3a 48 e2    	cp0.b     0x83a
    217a:	05 00 3a    	bra       NZ, 0x2186 <.L279>
    217c:	3a e8 b7    	mov.b     WREG, 0x83a
    217e:	48 68 ef    	clr.b     0x848
    2180:	44 68 ef    	clr.b     0x844
    2182:	80 6e ef    	clr.b     0xe80
    2184:	40 68 ef    	clr.b     0x840

00002186 <.L279>:
    2186:	00 40 eb    	clr.b     w0
    2188:	01 fc 07    	rcall     0x198c <_FCD_04071_LCD__ClearLine>
    218a:	01 01 20    	mov.w     #0x10, w1
    218c:	e0 bd 28    	mov.w     #0x8bde, w0
    218e:	13 fc 07    	rcall     0x19b6 <_FCD_04071_LCD__PrintString>
    2190:	10 c0 b3    	mov.b     #0x1, w0
    2192:	fc fb 07    	rcall     0x198c <_FCD_04071_LCD__ClearLine>
    2194:	01 01 20    	mov.w     #0x10, w1
    2196:	60 be 28    	mov.w     #0x8be6, w0
    2198:	0e fc 07    	rcall     0x19b6 <_FCD_04071_LCD__PrintString>
    219a:	41 c1 b3    	mov.b     #0x14, w1
    219c:	a0 c0 b3    	mov.b     #0xa, w0
    219e:	ec fb 07    	rcall     0x1978 <_FCD_04071_LCD__Cursor>
    21a0:	90 74 80    	mov.w     0xe92, w0
    21a2:	2a fc 07    	rcall     0x19f8 <_FCD_04071_LCD__PrintNumber>
    21a4:	20 c0 b3    	mov.b     #0x2, w0
    21a6:	6e ee b7    	mov.b     WREG, 0xe6e

000021a8 <.L264>:
    21a8:	2d 48 e2    	cp0.b     0x82d
    21aa:	9f 00 32    	bra       Z, 0x22ea <.L280>
    21ac:	55 48 e2    	cp0.b     0x855
    21ae:	9d 00 3a    	bra       NZ, 0x22ea <.L280>
    21b0:	10 c0 b3    	mov.b     #0x1, w0
    21b2:	55 e8 b7    	mov.b     WREG, 0x855
    21b4:	2e c8 bf    	mov.b     0x82e, WREG
    21b6:	e2 e6 20    	mov.w     #0xe6e, w2
    21b8:	12 41 78    	mov.b     [w2], w2
    21ba:	00 80 fb    	ze        w0, w0
    21bc:	00 00 e8    	inc.w     w0, w0
    21be:	02 81 fb    	ze        w2, w2
    21c0:	11 00 09    	repeat    #0x11
    21c2:	02 00 d8    	div.sw    w0, w2
    21c4:	01 41 78    	mov.b     w1, w2
    21c6:	e0 82 20    	mov.w     #0x82e, w0
    21c8:	02 48 78    	mov.b     w2, [w0]
    21ca:	48 48 e2    	cp0.b     0x848
    21cc:	1a 00 32    	bra       Z, 0x2202 <.L281>
    21ce:	73 c8 bf    	mov.b     0x873, WREG
    21d0:	e1 4f 50    	sub.b     w0, #0x1, [w15]
    21d2:	0b 00 3a    	bra       NZ, 0x21ea <.L282>
    21d4:	db fb 07    	rcall     0x198c <_FCD_04071_LCD__ClearLine>
    21d6:	01 01 20    	mov.w     #0x10, w1
    21d8:	c0 b8 28    	mov.w     #0x8b8c, w0
    21da:	ed fb 07    	rcall     0x19b6 <_FCD_04071_LCD__PrintString>
    21dc:	41 c1 b3    	mov.b     #0x14, w1
    21de:	a0 c0 b3    	mov.b     #0xa, w0
    21e0:	cb fb 07    	rcall     0x1978 <_FCD_04071_LCD__Cursor>
    21e2:	6f ce bf    	mov.b     0xe6f, WREG
    21e4:	00 80 fb    	ze        w0, w0
    21e6:	08 fc 07    	rcall     0x19f8 <_FCD_04071_LCD__PrintNumber>
    21e8:	80 00 37    	bra       0x22ea <.L280>

000021ea <.L282>:
    21ea:	10 c0 b3    	mov.b     #0x1, w0
    21ec:	cf fb 07    	rcall     0x198c <_FCD_04071_LCD__ClearLine>
    21ee:	01 01 20    	mov.w     #0x10, w1
    21f0:	c0 b8 28    	mov.w     #0x8b8c, w0
    21f2:	e1 fb 07    	rcall     0x19b6 <_FCD_04071_LCD__PrintString>
    21f4:	41 c1 b3    	mov.b     #0x14, w1
    21f6:	a0 c0 b3    	mov.b     #0xa, w0
    21f8:	bf fb 07    	rcall     0x1978 <_FCD_04071_LCD__Cursor>
    21fa:	86 ce bf    	mov.b     0xe86, WREG
    21fc:	00 80 fb    	ze        w0, w0
    21fe:	fc fb 07    	rcall     0x19f8 <_FCD_04071_LCD__PrintNumber>
    2200:	74 00 37    	bra       0x22ea <.L280>

00002202 <.L281>:
    2202:	44 48 e2    	cp0.b     0x844
    2204:	2e 00 32    	bra       Z, 0x2262 <.L283>
    2206:	68 c8 bf    	mov.b     0x868, WREG
    2208:	03 00 32    	bra       Z, 0x2210 <.L284>
    220a:	e1 4f 50    	sub.b     w0, #0x1, [w15]
    220c:	6e 00 3a    	bra       NZ, 0x22ea <.L280>
    220e:	1d 00 37    	bra       0x224a <.L345>

00002210 <.L284>:
    2210:	2e c8 bf    	mov.b     0x82e, WREG
    2212:	03 00 32    	bra       Z, 0x221a <.L286>
    2214:	e1 4f 50    	sub.b     w0, #0x1, [w15]
    2216:	69 00 3a    	bra       NZ, 0x22ea <.L280>
    2218:	0c 00 37    	bra       0x2232 <.L346>

0000221a <.L286>:
    221a:	10 c0 b3    	mov.b     #0x1, w0
    221c:	b7 fb 07    	rcall     0x198c <_FCD_04071_LCD__ClearLine>
    221e:	01 01 20    	mov.w     #0x10, w1
    2220:	50 ba 28    	mov.w     #0x8ba5, w0
    2222:	c9 fb 07    	rcall     0x19b6 <_FCD_04071_LCD__PrintString>
    2224:	41 c1 b3    	mov.b     #0x14, w1
    2226:	a0 c0 b3    	mov.b     #0xa, w0
    2228:	a7 fb 07    	rcall     0x1978 <_FCD_04071_LCD__Cursor>
    222a:	70 ce bf    	mov.b     0xe70, WREG
    222c:	00 80 fb    	ze        w0, w0
    222e:	e4 fb 07    	rcall     0x19f8 <_FCD_04071_LCD__PrintNumber>
    2230:	5c 00 37    	bra       0x22ea <.L280>

00002232 <.L346>:
    2232:	10 c0 b3    	mov.b     #0x1, w0
    2234:	ab fb 07    	rcall     0x198c <_FCD_04071_LCD__ClearLine>
    2236:	01 01 20    	mov.w     #0x10, w1
    2238:	c0 b8 28    	mov.w     #0x8b8c, w0
    223a:	bd fb 07    	rcall     0x19b6 <_FCD_04071_LCD__PrintString>
    223c:	41 c1 b3    	mov.b     #0x14, w1
    223e:	a0 c0 b3    	mov.b     #0xa, w0
    2240:	9b fb 07    	rcall     0x1978 <_FCD_04071_LCD__Cursor>
    2242:	86 ce bf    	mov.b     0xe86, WREG
    2244:	00 80 fb    	ze        w0, w0
    2246:	d8 fb 07    	rcall     0x19f8 <_FCD_04071_LCD__PrintNumber>
    2248:	50 00 37    	bra       0x22ea <.L280>

0000224a <.L345>:
    224a:	10 c0 b3    	mov.b     #0x1, w0
    224c:	9f fb 07    	rcall     0x198c <_FCD_04071_LCD__ClearLine>
    224e:	01 01 20    	mov.w     #0x10, w1
    2250:	c0 b8 28    	mov.w     #0x8b8c, w0
    2252:	b1 fb 07    	rcall     0x19b6 <_FCD_04071_LCD__PrintString>
    2254:	41 c1 b3    	mov.b     #0x14, w1
    2256:	a0 c0 b3    	mov.b     #0xa, w0
    2258:	8f fb 07    	rcall     0x1978 <_FCD_04071_LCD__Cursor>
    225a:	76 ce bf    	mov.b     0xe76, WREG
    225c:	00 80 fb    	ze        w0, w0
    225e:	cc fb 07    	rcall     0x19f8 <_FCD_04071_LCD__PrintNumber>
    2260:	44 00 37    	bra       0x22ea <.L280>

00002262 <.L283>:
    2262:	40 48 e2    	cp0.b     0x840
    2264:	36 00 32    	bra       Z, 0x22d2 <.L288>
    2266:	1b c8 bf    	mov.b     0x81b, WREG
    2268:	e1 4f 50    	sub.b     w0, #0x1, [w15]
    226a:	28 00 3a    	bra       NZ, 0x22bc <.L289>
    226c:	2e c8 bf    	mov.b     0x82e, WREG
    226e:	e1 4f 50    	sub.b     w0, #0x1, [w15]
    2270:	0f 00 32    	bra       Z, 0x2290 <.L291>
    2272:	03 00 39    	bra       NC, 0x227a <.L290>
    2274:	e2 4f 50    	sub.b     w0, #0x2, [w15]
    2276:	39 00 3a    	bra       NZ, 0x22ea <.L280>
    2278:	16 00 37    	bra       0x22a6 <.L347>

0000227a <.L290>:
    227a:	10 c0 b3    	mov.b     #0x1, w0
    227c:	87 fb 07    	rcall     0x198c <_FCD_04071_LCD__ClearLine>
    227e:	01 01 20    	mov.w     #0x10, w1
    2280:	90 bd 28    	mov.w     #0x8bd9, w0
    2282:	99 fb 07    	rcall     0x19b6 <_FCD_04071_LCD__PrintString>
    2284:	41 c1 b3    	mov.b     #0x14, w1
    2286:	a0 c0 b3    	mov.b     #0xa, w0
    2288:	77 fb 07    	rcall     0x1978 <_FCD_04071_LCD__Cursor>
    228a:	c0 73 80    	mov.w     0xe78, w0
    228c:	b5 fb 07    	rcall     0x19f8 <_FCD_04071_LCD__PrintNumber>
    228e:	2d 00 37    	bra       0x22ea <.L280>

00002290 <.L291>:
    2290:	10 c0 b3    	mov.b     #0x1, w0
    2292:	7c fb 07    	rcall     0x198c <_FCD_04071_LCD__ClearLine>
    2294:	01 01 20    	mov.w     #0x10, w1
    2296:	80 be 28    	mov.w     #0x8be8, w0
    2298:	8e fb 07    	rcall     0x19b6 <_FCD_04071_LCD__PrintString>
    229a:	41 c1 b3    	mov.b     #0x14, w1
    229c:	a0 c0 b3    	mov.b     #0xa, w0
    229e:	6c fb 07    	rcall     0x1978 <_FCD_04071_LCD__Cursor>
    22a0:	40 41 80    	mov.w     0x828, w0
    22a2:	aa fb 07    	rcall     0x19f8 <_FCD_04071_LCD__PrintNumber>
    22a4:	22 00 37    	bra       0x22ea <.L280>

000022a6 <.L347>:
    22a6:	10 c0 b3    	mov.b     #0x1, w0
    22a8:	71 fb 07    	rcall     0x198c <_FCD_04071_LCD__ClearLine>
    22aa:	01 01 20    	mov.w     #0x10, w1
    22ac:	f0 be 28    	mov.w     #0x8bef, w0
    22ae:	83 fb 07    	rcall     0x19b6 <_FCD_04071_LCD__PrintString>
    22b0:	41 c1 b3    	mov.b     #0x14, w1
    22b2:	a0 c0 b3    	mov.b     #0xa, w0
    22b4:	61 fb 07    	rcall     0x1978 <_FCD_04071_LCD__Cursor>
    22b6:	50 74 80    	mov.w     0xe8a, w0
    22b8:	9f fb 07    	rcall     0x19f8 <_FCD_04071_LCD__PrintNumber>
    22ba:	17 00 37    	bra       0x22ea <.L280>

000022bc <.L289>:
    22bc:	10 c0 b3    	mov.b     #0x1, w0
    22be:	66 fb 07    	rcall     0x198c <_FCD_04071_LCD__ClearLine>
    22c0:	01 01 20    	mov.w     #0x10, w1
    22c2:	80 bc 28    	mov.w     #0x8bc8, w0
    22c4:	78 fb 07    	rcall     0x19b6 <_FCD_04071_LCD__PrintString>
    22c6:	41 c1 b3    	mov.b     #0x14, w1
    22c8:	a0 c0 b3    	mov.b     #0xa, w0
    22ca:	56 fb 07    	rcall     0x1978 <_FCD_04071_LCD__Cursor>
    22cc:	20 74 80    	mov.w     0xe84, w0
    22ce:	94 fb 07    	rcall     0x19f8 <_FCD_04071_LCD__PrintNumber>
    22d0:	0c 00 37    	bra       0x22ea <.L280>

000022d2 <.L288>:
    22d2:	3a 48 e2    	cp0.b     0x83a
    22d4:	0a 00 32    	bra       Z, 0x22ea <.L280>
    22d6:	10 c0 b3    	mov.b     #0x1, w0
    22d8:	59 fb 07    	rcall     0x198c <_FCD_04071_LCD__ClearLine>
    22da:	01 01 20    	mov.w     #0x10, w1
    22dc:	60 be 28    	mov.w     #0x8be6, w0
    22de:	6b fb 07    	rcall     0x19b6 <_FCD_04071_LCD__PrintString>
    22e0:	41 c1 b3    	mov.b     #0x14, w1
    22e2:	a0 c0 b3    	mov.b     #0xa, w0
    22e4:	49 fb 07    	rcall     0x1978 <_FCD_04071_LCD__Cursor>
    22e6:	90 74 80    	mov.w     0xe92, w0
    22e8:	87 fb 07    	rcall     0x19f8 <_FCD_04071_LCD__PrintNumber>

000022ea <.L280>:
    22ea:	41 48 e2    	cp0.b     0x841
    22ec:	07 01 32    	bra       Z, 0x24fc <.L293>
    22ee:	11 48 e2    	cp0.b     0x811
    22f0:	05 01 3a    	bra       NZ, 0x24fc <.L293>
    22f2:	10 c0 b3    	mov.b     #0x1, w0
    22f4:	11 e8 b7    	mov.b     WREG, 0x811
    22f6:	48 48 e2    	cp0.b     0x848
    22f8:	15 00 32    	bra       Z, 0x2324 <.L294>
    22fa:	73 c8 bf    	mov.b     0x873, WREG
    22fc:	03 00 32    	bra       Z, 0x2304 <.L296>
    22fe:	e1 4f 50    	sub.b     w0, #0x1, [w15]
    2300:	05 02 3a    	bra       NZ, 0x270c <.L295>
    2302:	08 00 37    	bra       0x2314 <.L348>

00002304 <.L296>:
    2304:	70 ff 27    	mov.w     #0x7ff7, w0
    2306:	88 0e e3    	cp.w      0xe88
    2308:	01 02 3c    	bra       GT, 0x270c <.L295>
    230a:	60 66 20    	mov.w     #0x666, w0
    230c:	88 2e b4    	add.w     0xe88
    230e:	50 c0 b3    	mov.b     #0x5, w0
    2310:	86 6e b4    	add.b     0xe86
    2312:	fc 01 37    	bra       0x270c <.L295>

00002314 <.L348>:
    2314:	40 06 20    	mov.w     #0x64, w0
    2316:	6a 0e e3    	cp.w      0xe6a
    2318:	f9 01 36    	bra       LEU, 0x270c <.L295>
    231a:	c0 e0 2f    	mov.w     #0xfe0c, w0
    231c:	6a 2e b4    	add.w     0xe6a
    231e:	50 c0 b3    	mov.b     #0x5, w0
    2320:	6f 6e b4    	add.b     0xe6f
    2322:	f4 01 37    	bra       0x270c <.L295>

00002324 <.L294>:
    2324:	44 48 e2    	cp0.b     0x844
    2326:	1f 00 32    	bra       Z, 0x2366 <.L298>
    2328:	68 c8 bf    	mov.b     0x868, WREG
    232a:	03 00 32    	bra       Z, 0x2332 <.L299>
    232c:	e1 4f 50    	sub.b     w0, #0x1, [w15]
    232e:	ee 01 3a    	bra       NZ, 0x270c <.L295>
    2330:	12 00 37    	bra       0x2356 <.L349>

00002332 <.L299>:
    2332:	2e c8 bf    	mov.b     0x82e, WREG
    2334:	03 00 32    	bra       Z, 0x233c <.L301>
    2336:	e1 4f 50    	sub.b     w0, #0x1, [w15]
    2338:	e9 01 3a    	bra       NZ, 0x270c <.L295>
    233a:	05 00 37    	bra       0x2346 <.L350>

0000233c <.L301>:
    233c:	70 ce bf    	mov.b     0xe70, WREG
    233e:	e3 4f 50    	sub.b     w0, #0x3, [w15]
    2340:	e5 01 3e    	bra       GTU, 0x270c <.L295>
    2342:	70 6e ec    	inc.b     0xe70
    2344:	e3 01 37    	bra       0x270c <.L295>

00002346 <.L350>:
    2346:	70 ff 27    	mov.w     #0x7ff7, w0
    2348:	88 0e e3    	cp.w      0xe88
    234a:	e0 01 3c    	bra       GT, 0x270c <.L295>
    234c:	60 66 20    	mov.w     #0x666, w0
    234e:	88 2e b4    	add.w     0xe88
    2350:	50 c0 b3    	mov.b     #0x5, w0
    2352:	86 6e b4    	add.b     0xe86
    2354:	db 01 37    	bra       0x270c <.L295>

00002356 <.L349>:
    2356:	40 06 20    	mov.w     #0x64, w0
    2358:	66 0e e3    	cp.w      0xe66
    235a:	d8 01 36    	bra       LEU, 0x270c <.L295>
    235c:	c0 e0 2f    	mov.w     #0xfe0c, w0
    235e:	66 2e b4    	add.w     0xe66
    2360:	50 c0 b3    	mov.b     #0x5, w0
    2362:	76 6e b4    	add.b     0xe76
    2364:	d3 01 37    	bra       0x270c <.L295>

00002366 <.L298>:
    2366:	40 48 e2    	cp0.b     0x840
    2368:	2e 00 32    	bra       Z, 0x23c6 <.L303>
    236a:	1b c8 bf    	mov.b     0x81b, WREG
    236c:	03 00 32    	bra       Z, 0x2374 <.L304>
    236e:	e1 4f 50    	sub.b     w0, #0x1, [w15]
    2370:	cd 01 3a    	bra       NZ, 0x270c <.L295>
    2372:	05 00 37    	bra       0x237e <.L351>

00002374 <.L304>:
    2374:	20 74 80    	mov.w     0xe84, w0
    2376:	ef 0f 50    	sub.w     w0, #0xf, [w15]
    2378:	c9 01 3e    	bra       GTU, 0x270c <.L295>
    237a:	84 2e ec    	inc.w     0xe84
    237c:	c7 01 37    	bra       0x270c <.L295>

0000237e <.L351>:
    237e:	2e c8 bf    	mov.b     0x82e, WREG
    2380:	e1 4f 50    	sub.b     w0, #0x1, [w15]
    2382:	11 00 32    	bra       Z, 0x23a6 <.L307>
    2384:	03 00 39    	bra       NC, 0x238c <.L306>
    2386:	e2 4f 50    	sub.b     w0, #0x2, [w15]
    2388:	c1 01 3a    	bra       NZ, 0x270c <.L295>
    238a:	15 00 37    	bra       0x23b6 <.L352>

0000238c <.L306>:
    238c:	70 de 2f    	mov.w     #0xfde7, w0
    238e:	74 0e e3    	cp.w      0xe74
    2390:	bd 01 3e    	bra       GTU, 0x270c <.L295>
    2392:	80 0c 20    	mov.w     #0xc8, w0
    2394:	74 2e b4    	add.w     0xe74
    2396:	74 0e f8    	push      0xe74
    2398:	78 0e f9    	pop       0xe78
    239a:	c0 73 80    	mov.w     0xe78, w0
    239c:	42 06 20    	mov.w     #0x64, w2
    239e:	11 00 09    	repeat    #0x11
    23a0:	02 00 d8    	div.sw    w0, w2
    23a2:	c0 73 88    	mov.w     w0, 0xe78
    23a4:	b3 01 37    	bra       0x270c <.L295>

000023a6 <.L307>:
    23a6:	70 ff 27    	mov.w     #0x7ff7, w0
    23a8:	6e 08 e3    	cp.w      0x86e
    23aa:	b0 01 3c    	bra       GT, 0x270c <.L295>
    23ac:	60 66 20    	mov.w     #0x666, w0
    23ae:	6e 28 b4    	add.w     0x86e
    23b0:	50 00 20    	mov.w     #0x5, w0
    23b2:	28 28 b4    	add.w     0x828
    23b4:	ab 01 37    	bra       0x270c <.L295>

000023b6 <.L352>:
    23b6:	70 ff 27    	mov.w     #0x7ff7, w0
    23b8:	8e 0e e3    	cp.w      0xe8e
    23ba:	a8 01 3c    	bra       GT, 0x270c <.L295>
    23bc:	60 66 20    	mov.w     #0x666, w0
    23be:	8e 2e b4    	add.w     0xe8e
    23c0:	50 00 20    	mov.w     #0x5, w0
    23c2:	8a 2e b4    	add.w     0xe8a
    23c4:	a3 01 37    	bra       0x270c <.L295>

000023c6 <.L303>:
    23c6:	3a 48 e2    	cp0.b     0x83a
    23c8:	a1 01 32    	bra       Z, 0x270c <.L295>
    23ca:	b0 03 20    	mov.w     #0x3b, w0
    23cc:	92 0e e3    	cp.w      0xe92
    23ce:	9e 01 3e    	bra       GTU, 0x270c <.L295>
    23d0:	92 2e ec    	inc.w     0xe92
    23d2:	f0 73 80    	mov.w     0xe7e, w0
    23d4:	80 00 eb    	clr.w     w1
    23d6:	39 f0 07    	rcall     0x44a <___floatunsisf> <.libm>
    23d8:	3a f0 07    	rcall     0x44e <___extendsfdf2> <.libm>
    23da:	74 8a 2e    	mov.w     #0xe8a7, w4
    23dc:	85 e4 22    	mov.w     #0x2e48, w5
    23de:	f6 1f 22    	mov.w     #0x21ff, w6
    23e0:	97 00 24    	mov.w     #0x4009, w7
    23e2:	02 ef 07    	rcall     0x1e8 <___muldf3> <.libm>
    23e4:	60 22 b8    	mul.uu    w4, #0x0, w4
    23e6:	06 00 27    	mov.w     #0x7000, w6
    23e8:	77 0d 24    	mov.w     #0x40d7, w7
    23ea:	50 f0 07    	rcall     0x48c <___divdf3> <.libm>
    23ec:	a9 f0 07    	rcall     0x540 <_sin> <_sinl> <.libm>
    23ee:	00 02 be    	mov.d     w0, w4
    23f0:	02 03 be    	mov.d     w2, w6
    23f2:	74 ef 07    	rcall     0x2dc <___adddf3> <.libm>
    23f4:	10 40 88    	mov.w     w0, 0x802
    23f6:	21 40 88    	mov.w     w1, 0x804
    23f8:	32 40 88    	mov.w     w2, 0x806
    23fa:	43 40 88    	mov.w     w3, 0x808
    23fc:	90 74 80    	mov.w     0xe92, w0
    23fe:	80 00 eb    	clr.w     w1
    2400:	24 f0 07    	rcall     0x44a <___floatunsisf> <.libm>
    2402:	25 f0 07    	rcall     0x44e <___extendsfdf2> <.libm>
    2404:	00 02 be    	mov.d     w0, w4
    2406:	02 03 be    	mov.d     w2, w6
    2408:	60 00 b8    	mul.uu    w0, #0x0, w0
    240a:	02 00 20    	mov.w     #0x0, w2
    240c:	03 ff 23    	mov.w     #0x3ff0, w3
    240e:	3e f0 07    	rcall     0x48c <___divdf3> <.libm>
    2410:	90 41 88    	mov.w     w0, 0x832
    2412:	a1 41 88    	mov.w     w1, 0x834
    2414:	b2 41 88    	mov.w     w2, 0x836
    2416:	c3 41 88    	mov.w     w3, 0x838
    2418:	10 40 80    	mov.w     0x802, w0
    241a:	21 40 80    	mov.w     0x804, w1
    241c:	32 40 80    	mov.w     0x806, w2
    241e:	43 40 80    	mov.w     0x808, w3
    2420:	94 41 80    	mov.w     0x832, w4
    2422:	a5 41 80    	mov.w     0x834, w5
    2424:	b6 41 80    	mov.w     0x836, w6
    2426:	c7 41 80    	mov.w     0x838, w7
    2428:	df ee 07    	rcall     0x1e8 <___muldf3> <.libm>
    242a:	00 02 be    	mov.d     w0, w4
    242c:	02 03 be    	mov.d     w2, w6
    242e:	60 00 b8    	mul.uu    w0, #0x0, w0
    2430:	02 00 20    	mov.w     #0x0, w2
    2432:	03 ff 23    	mov.w     #0x3ff0, w3
    2434:	05 f0 07    	rcall     0x440 <___subdf3> <.libm>
    2436:	d0 42 88    	mov.w     w0, 0x85a
    2438:	e1 42 88    	mov.w     w1, 0x85c
    243a:	f2 42 88    	mov.w     w2, 0x85e
    243c:	03 43 88    	mov.w     w3, 0x860
    243e:	90 41 80    	mov.w     0x832, w0
    2440:	a1 41 80    	mov.w     0x834, w1
    2442:	b2 41 80    	mov.w     0x836, w2
    2444:	c3 41 80    	mov.w     0x838, w3
    2446:	7e f0 07    	rcall     0x544 <_sqrt> <_sqrtl> <.libm>
    2448:	00 41 88    	mov.w     w0, 0x820
    244a:	11 41 88    	mov.w     w1, 0x822
    244c:	22 41 88    	mov.w     w2, 0x824
    244e:	33 41 88    	mov.w     w3, 0x826
    2450:	10 40 80    	mov.w     0x802, w0
    2452:	21 40 80    	mov.w     0x804, w1
    2454:	32 40 80    	mov.w     0x806, w2
    2456:	43 40 80    	mov.w     0x808, w3
    2458:	04 41 80    	mov.w     0x820, w4
    245a:	15 41 80    	mov.w     0x822, w5
    245c:	26 41 80    	mov.w     0x824, w6
    245e:	37 41 80    	mov.w     0x826, w7
    2460:	c3 ee 07    	rcall     0x1e8 <___muldf3> <.libm>
    2462:	c0 44 88    	mov.w     w0, 0x898
    2464:	d1 44 88    	mov.w     w1, 0x89a
    2466:	e2 44 88    	mov.w     w2, 0x89c
    2468:	f3 44 88    	mov.w     w3, 0x89e
    246a:	c0 44 80    	mov.w     0x898, w0
    246c:	d1 44 80    	mov.w     0x89a, w1
    246e:	e2 44 80    	mov.w     0x89c, w2
    2470:	f3 44 80    	mov.w     0x89e, w3
    2472:	00 45 88    	mov.w     w0, 0x8a0
    2474:	11 45 88    	mov.w     w1, 0x8a2
    2476:	22 45 88    	mov.w     w2, 0x8a4
    2478:	33 45 88    	mov.w     w3, 0x8a6
    247a:	10 40 80    	mov.w     0x802, w0
    247c:	21 40 80    	mov.w     0x804, w1
    247e:	32 40 80    	mov.w     0x806, w2
    2480:	43 40 80    	mov.w     0x808, w3
    2482:	14 40 80    	mov.w     0x802, w4
    2484:	25 40 80    	mov.w     0x804, w5
    2486:	36 40 80    	mov.w     0x806, w6
    2488:	47 40 80    	mov.w     0x808, w7
    248a:	d8 42 80    	mov.w     0x85a, w8
    248c:	e9 42 80    	mov.w     0x85c, w9
    248e:	fa 42 80    	mov.w     0x85e, w10
    2490:	0b 43 80    	mov.w     0x860, w11
    2492:	aa ee 07    	rcall     0x1e8 <___muldf3> <.libm>
    2494:	08 02 be    	mov.d     w8, w4
    2496:	0a 03 be    	mov.d     w10, w6
    2498:	d3 ef 07    	rcall     0x440 <___subdf3> <.libm>
    249a:	60 22 b8    	mul.uu    w4, #0x0, w4
    249c:	06 00 20    	mov.w     #0x0, w6
    249e:	07 ff 23    	mov.w     #0x3ff0, w7
    24a0:	cf ef 07    	rcall     0x440 <___subdf3> <.libm>
    24a2:	a0 71 88    	mov.w     w0, 0xe34
    24a4:	b1 71 88    	mov.w     w1, 0xe36
    24a6:	c2 71 88    	mov.w     w2, 0xe38
    24a8:	d3 71 88    	mov.w     w3, 0xe3a
    24aa:	d0 42 80    	mov.w     0x85a, w0
    24ac:	e1 42 80    	mov.w     0x85c, w1
    24ae:	f2 42 80    	mov.w     0x85e, w2
    24b0:	03 43 80    	mov.w     0x860, w3
    24b2:	e0 71 88    	mov.w     w0, 0xe3c
    24b4:	f1 71 88    	mov.w     w1, 0xe3e
    24b6:	02 72 88    	mov.w     w2, 0xe40
    24b8:	13 72 88    	mov.w     w3, 0xe42
    24ba:	c0 44 80    	mov.w     0x898, w0
    24bc:	d1 44 80    	mov.w     0x89a, w1
    24be:	e2 44 80    	mov.w     0x89c, w2
    24c0:	f3 44 80    	mov.w     0x89e, w3
    24c2:	60 22 b8    	mul.uu    w4, #0x0, w4
    24c4:	06 00 20    	mov.w     #0x0, w6
    24c6:	07 0c 24    	mov.w     #0x40c0, w7
    24c8:	8f ee 07    	rcall     0x1e8 <___muldf3> <.libm>
    24ca:	8e ef 07    	rcall     0x3e8 <___fixdfsi> <.libm>
    24cc:	80 45 88    	mov.w     w0, 0x8b0
    24ce:	b0 08 f8    	push      0x8b0
    24d0:	b2 08 f9    	pop       0x8b2
    24d2:	a0 71 80    	mov.w     0xe34, w0
    24d4:	b1 71 80    	mov.w     0xe36, w1
    24d6:	c2 71 80    	mov.w     0xe38, w2
    24d8:	d3 71 80    	mov.w     0xe3a, w3
    24da:	60 22 b8    	mul.uu    w4, #0x0, w4
    24dc:	06 00 20    	mov.w     #0x0, w6
    24de:	07 0c 24    	mov.w     #0x40c0, w7
    24e0:	83 ee 07    	rcall     0x1e8 <___muldf3> <.libm>
    24e2:	82 ef 07    	rcall     0x3e8 <___fixdfsi> <.libm>
    24e4:	a0 45 88    	mov.w     w0, 0x8b4
    24e6:	e0 71 80    	mov.w     0xe3c, w0
    24e8:	f1 71 80    	mov.w     0xe3e, w1
    24ea:	02 72 80    	mov.w     0xe40, w2
    24ec:	13 72 80    	mov.w     0xe42, w3
    24ee:	60 22 b8    	mul.uu    w4, #0x0, w4
    24f0:	06 00 20    	mov.w     #0x0, w6
    24f2:	07 0c 24    	mov.w     #0x40c0, w7
    24f4:	79 ee 07    	rcall     0x1e8 <___muldf3> <.libm>
    24f6:	78 ef 07    	rcall     0x3e8 <___fixdfsi> <.libm>
    24f8:	b0 45 88    	mov.w     w0, 0x8b6
    24fa:	08 01 37    	bra       0x270c <.L295>

000024fc <.L293>:
    24fc:	54 48 e2    	cp0.b     0x854
    24fe:	06 01 32    	bra       Z, 0x270c <.L295>
    2500:	11 48 e2    	cp0.b     0x811
    2502:	04 01 3a    	bra       NZ, 0x270c <.L295>
    2504:	10 c0 b3    	mov.b     #0x1, w0
    2506:	11 e8 b7    	mov.b     WREG, 0x811
    2508:	48 48 e2    	cp0.b     0x848
    250a:	14 00 32    	bra       Z, 0x2534 <.L309>
    250c:	73 c8 bf    	mov.b     0x873, WREG
    250e:	03 00 32    	bra       Z, 0x2516 <.L310>
    2510:	e1 4f 50    	sub.b     w0, #0x1, [w15]
    2512:	fc 00 3a    	bra       NZ, 0x270c <.L295>
    2514:	07 00 37    	bra       0x2524 <.L353>

00002516 <.L310>:
    2516:	88 0e e2    	cp0.w     0xe88
    2518:	f9 00 34    	bra       LE, 0x270c <.L295>
    251a:	a0 99 2f    	mov.w     #0xf99a, w0
    251c:	88 2e b4    	add.w     0xe88
    251e:	b0 cf b3    	mov.b     #0xfb, w0
    2520:	86 6e b4    	add.b     0xe86
    2522:	f4 00 37    	bra       0x270c <.L295>

00002524 <.L353>:
    2524:	30 77 22    	mov.w     #0x2773, w0
    2526:	6a 0e e3    	cp.w      0xe6a
    2528:	f1 00 3e    	bra       GTU, 0x270c <.L295>
    252a:	40 1f 20    	mov.w     #0x1f4, w0
    252c:	6a 2e b4    	add.w     0xe6a
    252e:	b0 cf b3    	mov.b     #0xfb, w0
    2530:	6f 6e b4    	add.b     0xe6f
    2532:	ec 00 37    	bra       0x270c <.L295>

00002534 <.L309>:
    2534:	44 48 e2    	cp0.b     0x844
    2536:	1e 00 32    	bra       Z, 0x2574 <.L312>
    2538:	68 c8 bf    	mov.b     0x868, WREG
    253a:	03 00 32    	bra       Z, 0x2542 <.L313>
    253c:	e1 4f 50    	sub.b     w0, #0x1, [w15]
    253e:	e6 00 3a    	bra       NZ, 0x270c <.L295>
    2540:	11 00 37    	bra       0x2564 <.L354>

00002542 <.L313>:
    2542:	2e c8 bf    	mov.b     0x82e, WREG
    2544:	03 00 32    	bra       Z, 0x254c <.L315>
    2546:	e1 4f 50    	sub.b     w0, #0x1, [w15]
    2548:	e1 00 3a    	bra       NZ, 0x270c <.L295>
    254a:	05 00 37    	bra       0x2556 <.L355>

0000254c <.L315>:
    254c:	70 ce bf    	mov.b     0xe70, WREG
    254e:	e1 4f 50    	sub.b     w0, #0x1, [w15]
    2550:	dd 00 36    	bra       LEU, 0x270c <.L295>
    2552:	70 6e ed    	dec.b     0xe70
    2554:	db 00 37    	bra       0x270c <.L295>

00002556 <.L355>:
    2556:	88 0e e2    	cp0.w     0xe88
    2558:	d9 00 34    	bra       LE, 0x270c <.L295>
    255a:	a0 99 2f    	mov.w     #0xf99a, w0
    255c:	88 2e b4    	add.w     0xe88
    255e:	b0 cf b3    	mov.b     #0xfb, w0
    2560:	86 6e b4    	add.b     0xe86
    2562:	d4 00 37    	bra       0x270c <.L295>

00002564 <.L354>:
    2564:	30 77 22    	mov.w     #0x2773, w0
    2566:	66 0e e3    	cp.w      0xe66
    2568:	d1 00 3e    	bra       GTU, 0x270c <.L295>
    256a:	40 1f 20    	mov.w     #0x1f4, w0
    256c:	66 2e b4    	add.w     0xe66
    256e:	b0 cf b3    	mov.b     #0xfb, w0
    2570:	76 6e b4    	add.b     0xe76
    2572:	cc 00 37    	bra       0x270c <.L295>

00002574 <.L312>:
    2574:	80 4e e2    	cp0.b     0xe80
    2576:	ca 00 3a    	bra       NZ, 0x270c <.L295>
    2578:	40 48 e2    	cp0.b     0x840
    257a:	2e 00 32    	bra       Z, 0x25d8 <.L317>
    257c:	1b c8 bf    	mov.b     0x81b, WREG
    257e:	03 00 32    	bra       Z, 0x2586 <.L318>
    2580:	e1 4f 50    	sub.b     w0, #0x1, [w15]
    2582:	c4 00 3a    	bra       NZ, 0x270c <.L295>
    2584:	05 00 37    	bra       0x2590 <.L356>

00002586 <.L318>:
    2586:	20 74 80    	mov.w     0xe84, w0
    2588:	e1 0f 50    	sub.w     w0, #0x1, [w15]
    258a:	c0 00 36    	bra       LEU, 0x270c <.L295>
    258c:	84 2e ed    	dec.w     0xe84
    258e:	be 00 37    	bra       0x270c <.L295>

00002590 <.L356>:
    2590:	2e c8 bf    	mov.b     0x82e, WREG
    2592:	e1 4f 50    	sub.b     w0, #0x1, [w15]
    2594:	11 00 32    	bra       Z, 0x25b8 <.L321>
    2596:	03 00 39    	bra       NC, 0x259e <.L320>
    2598:	e2 4f 50    	sub.b     w0, #0x2, [w15]
    259a:	b8 00 3a    	bra       NZ, 0x270c <.L295>
    259c:	15 00 37    	bra       0x25c8 <.L357>

0000259e <.L320>:
    259e:	70 0c 20    	mov.w     #0xc7, w0
    25a0:	74 0e e3    	cp.w      0xe74
    25a2:	b4 00 36    	bra       LEU, 0x270c <.L295>
    25a4:	80 f3 2f    	mov.w     #0xff38, w0
    25a6:	74 2e b4    	add.w     0xe74
    25a8:	74 0e f8    	push      0xe74
    25aa:	78 0e f9    	pop       0xe78
    25ac:	c0 73 80    	mov.w     0xe78, w0
    25ae:	42 06 20    	mov.w     #0x64, w2
    25b0:	11 00 09    	repeat    #0x11
    25b2:	02 00 d8    	div.sw    w0, w2
    25b4:	c0 73 88    	mov.w     w0, 0xe78
    25b6:	aa 00 37    	bra       0x270c <.L295>

000025b8 <.L321>:
    25b8:	90 00 28    	mov.w     #0x8009, w0
    25ba:	6e 08 e3    	cp.w      0x86e
    25bc:	a7 00 35    	bra       LT, 0x270c <.L295>
    25be:	a0 99 2f    	mov.w     #0xf99a, w0
    25c0:	6e 28 b4    	add.w     0x86e
    25c2:	b0 ff 2f    	mov.w     #0xfffb, w0
    25c4:	28 28 b4    	add.w     0x828
    25c6:	a2 00 37    	bra       0x270c <.L295>

000025c8 <.L357>:
    25c8:	60 66 20    	mov.w     #0x666, w0
    25ca:	8e 0e e3    	cp.w      0xe8e
    25cc:	9f 00 34    	bra       LE, 0x270c <.L295>
    25ce:	a0 99 2f    	mov.w     #0xf99a, w0
    25d0:	8e 2e b4    	add.w     0xe8e
    25d2:	b0 ff 2f    	mov.w     #0xfffb, w0
    25d4:	8a 2e b4    	add.w     0xe8a
    25d6:	9a 00 37    	bra       0x270c <.L295>

000025d8 <.L317>:
    25d8:	3a 48 e2    	cp0.b     0x83a
    25da:	98 00 32    	bra       Z, 0x270c <.L295>
    25dc:	90 74 80    	mov.w     0xe92, w0
    25de:	e1 0f 50    	sub.w     w0, #0x1, [w15]
    25e0:	95 00 36    	bra       LEU, 0x270c <.L295>
    25e2:	92 2e ed    	dec.w     0xe92
    25e4:	f0 73 80    	mov.w     0xe7e, w0
    25e6:	80 00 eb    	clr.w     w1
    25e8:	30 ef 07    	rcall     0x44a <___floatunsisf> <.libm>
    25ea:	31 ef 07    	rcall     0x44e <___extendsfdf2> <.libm>
    25ec:	74 8a 2e    	mov.w     #0xe8a7, w4
    25ee:	85 e4 22    	mov.w     #0x2e48, w5
    25f0:	f6 1f 22    	mov.w     #0x21ff, w6
    25f2:	97 00 24    	mov.w     #0x4009, w7
    25f4:	f9 ed 07    	rcall     0x1e8 <___muldf3> <.libm>
    25f6:	60 22 b8    	mul.uu    w4, #0x0, w4
    25f8:	06 00 27    	mov.w     #0x7000, w6
    25fa:	77 0d 24    	mov.w     #0x40d7, w7
    25fc:	47 ef 07    	rcall     0x48c <___divdf3> <.libm>
    25fe:	a0 ef 07    	rcall     0x540 <_sin> <_sinl> <.libm>
    2600:	00 02 be    	mov.d     w0, w4
    2602:	02 03 be    	mov.d     w2, w6
    2604:	6b ee 07    	rcall     0x2dc <___adddf3> <.libm>
    2606:	10 40 88    	mov.w     w0, 0x802
    2608:	21 40 88    	mov.w     w1, 0x804
    260a:	32 40 88    	mov.w     w2, 0x806
    260c:	43 40 88    	mov.w     w3, 0x808
    260e:	90 74 80    	mov.w     0xe92, w0
    2610:	80 00 eb    	clr.w     w1
    2612:	1b ef 07    	rcall     0x44a <___floatunsisf> <.libm>
    2614:	1c ef 07    	rcall     0x44e <___extendsfdf2> <.libm>
    2616:	00 02 be    	mov.d     w0, w4
    2618:	02 03 be    	mov.d     w2, w6
    261a:	60 00 b8    	mul.uu    w0, #0x0, w0
    261c:	02 00 20    	mov.w     #0x0, w2
    261e:	03 ff 23    	mov.w     #0x3ff0, w3
    2620:	35 ef 07    	rcall     0x48c <___divdf3> <.libm>
    2622:	90 41 88    	mov.w     w0, 0x832
    2624:	a1 41 88    	mov.w     w1, 0x834
    2626:	b2 41 88    	mov.w     w2, 0x836
    2628:	c3 41 88    	mov.w     w3, 0x838
    262a:	10 40 80    	mov.w     0x802, w0
    262c:	21 40 80    	mov.w     0x804, w1
    262e:	32 40 80    	mov.w     0x806, w2
    2630:	43 40 80    	mov.w     0x808, w3
    2632:	94 41 80    	mov.w     0x832, w4
    2634:	a5 41 80    	mov.w     0x834, w5
    2636:	b6 41 80    	mov.w     0x836, w6
    2638:	c7 41 80    	mov.w     0x838, w7
    263a:	d6 ed 07    	rcall     0x1e8 <___muldf3> <.libm>
    263c:	00 02 be    	mov.d     w0, w4
    263e:	02 03 be    	mov.d     w2, w6
    2640:	60 00 b8    	mul.uu    w0, #0x0, w0
    2642:	02 00 20    	mov.w     #0x0, w2
    2644:	03 ff 23    	mov.w     #0x3ff0, w3
    2646:	fc ee 07    	rcall     0x440 <___subdf3> <.libm>
    2648:	d0 42 88    	mov.w     w0, 0x85a
    264a:	e1 42 88    	mov.w     w1, 0x85c
    264c:	f2 42 88    	mov.w     w2, 0x85e
    264e:	03 43 88    	mov.w     w3, 0x860
    2650:	90 41 80    	mov.w     0x832, w0
    2652:	a1 41 80    	mov.w     0x834, w1
    2654:	b2 41 80    	mov.w     0x836, w2
    2656:	c3 41 80    	mov.w     0x838, w3
    2658:	75 ef 07    	rcall     0x544 <_sqrt> <_sqrtl> <.libm>
    265a:	00 41 88    	mov.w     w0, 0x820
    265c:	11 41 88    	mov.w     w1, 0x822
    265e:	22 41 88    	mov.w     w2, 0x824
    2660:	33 41 88    	mov.w     w3, 0x826
    2662:	10 40 80    	mov.w     0x802, w0
    2664:	21 40 80    	mov.w     0x804, w1
    2666:	32 40 80    	mov.w     0x806, w2
    2668:	43 40 80    	mov.w     0x808, w3
    266a:	04 41 80    	mov.w     0x820, w4
    266c:	15 41 80    	mov.w     0x822, w5
    266e:	26 41 80    	mov.w     0x824, w6
    2670:	37 41 80    	mov.w     0x826, w7
    2672:	ba ed 07    	rcall     0x1e8 <___muldf3> <.libm>
    2674:	c0 44 88    	mov.w     w0, 0x898
    2676:	d1 44 88    	mov.w     w1, 0x89a
    2678:	e2 44 88    	mov.w     w2, 0x89c
    267a:	f3 44 88    	mov.w     w3, 0x89e
    267c:	c0 44 80    	mov.w     0x898, w0
    267e:	d1 44 80    	mov.w     0x89a, w1
    2680:	e2 44 80    	mov.w     0x89c, w2
    2682:	f3 44 80    	mov.w     0x89e, w3
    2684:	00 45 88    	mov.w     w0, 0x8a0
    2686:	11 45 88    	mov.w     w1, 0x8a2
    2688:	22 45 88    	mov.w     w2, 0x8a4
    268a:	33 45 88    	mov.w     w3, 0x8a6
    268c:	10 40 80    	mov.w     0x802, w0
    268e:	21 40 80    	mov.w     0x804, w1
    2690:	32 40 80    	mov.w     0x806, w2
    2692:	43 40 80    	mov.w     0x808, w3
    2694:	14 40 80    	mov.w     0x802, w4
    2696:	25 40 80    	mov.w     0x804, w5
    2698:	36 40 80    	mov.w     0x806, w6
    269a:	47 40 80    	mov.w     0x808, w7
    269c:	d8 42 80    	mov.w     0x85a, w8
    269e:	e9 42 80    	mov.w     0x85c, w9
    26a0:	fa 42 80    	mov.w     0x85e, w10
    26a2:	0b 43 80    	mov.w     0x860, w11
    26a4:	a1 ed 07    	rcall     0x1e8 <___muldf3> <.libm>
    26a6:	08 02 be    	mov.d     w8, w4
    26a8:	0a 03 be    	mov.d     w10, w6
    26aa:	ca ee 07    	rcall     0x440 <___subdf3> <.libm>
    26ac:	60 22 b8    	mul.uu    w4, #0x0, w4
    26ae:	06 00 20    	mov.w     #0x0, w6
    26b0:	07 ff 23    	mov.w     #0x3ff0, w7
    26b2:	c6 ee 07    	rcall     0x440 <___subdf3> <.libm>
    26b4:	a0 71 88    	mov.w     w0, 0xe34
    26b6:	b1 71 88    	mov.w     w1, 0xe36
    26b8:	c2 71 88    	mov.w     w2, 0xe38
    26ba:	d3 71 88    	mov.w     w3, 0xe3a
    26bc:	d0 42 80    	mov.w     0x85a, w0
    26be:	e1 42 80    	mov.w     0x85c, w1
    26c0:	f2 42 80    	mov.w     0x85e, w2
    26c2:	03 43 80    	mov.w     0x860, w3
    26c4:	e0 71 88    	mov.w     w0, 0xe3c
    26c6:	f1 71 88    	mov.w     w1, 0xe3e
    26c8:	02 72 88    	mov.w     w2, 0xe40
    26ca:	13 72 88    	mov.w     w3, 0xe42
    26cc:	c0 44 80    	mov.w     0x898, w0
    26ce:	d1 44 80    	mov.w     0x89a, w1
    26d0:	e2 44 80    	mov.w     0x89c, w2
    26d2:	f3 44 80    	mov.w     0x89e, w3
    26d4:	60 22 b8    	mul.uu    w4, #0x0, w4
    26d6:	06 00 20    	mov.w     #0x0, w6
    26d8:	07 0c 24    	mov.w     #0x40c0, w7
    26da:	86 ed 07    	rcall     0x1e8 <___muldf3> <.libm>
    26dc:	85 ee 07    	rcall     0x3e8 <___fixdfsi> <.libm>
    26de:	80 45 88    	mov.w     w0, 0x8b0
    26e0:	b0 08 f8    	push      0x8b0
    26e2:	b2 08 f9    	pop       0x8b2
    26e4:	a0 71 80    	mov.w     0xe34, w0
    26e6:	b1 71 80    	mov.w     0xe36, w1
    26e8:	c2 71 80    	mov.w     0xe38, w2
    26ea:	d3 71 80    	mov.w     0xe3a, w3
    26ec:	60 22 b8    	mul.uu    w4, #0x0, w4
    26ee:	06 00 20    	mov.w     #0x0, w6
    26f0:	07 0c 24    	mov.w     #0x40c0, w7
    26f2:	7a ed 07    	rcall     0x1e8 <___muldf3> <.libm>
    26f4:	79 ee 07    	rcall     0x3e8 <___fixdfsi> <.libm>
    26f6:	a0 45 88    	mov.w     w0, 0x8b4
    26f8:	e0 71 80    	mov.w     0xe3c, w0
    26fa:	f1 71 80    	mov.w     0xe3e, w1
    26fc:	02 72 80    	mov.w     0xe40, w2
    26fe:	13 72 80    	mov.w     0xe42, w3
    2700:	60 22 b8    	mul.uu    w4, #0x0, w4
    2702:	06 00 20    	mov.w     #0x0, w6
    2704:	07 0c 24    	mov.w     #0x40c0, w7
    2706:	70 ed 07    	rcall     0x1e8 <___muldf3> <.libm>
    2708:	6f ee 07    	rcall     0x3e8 <___fixdfsi> <.libm>
    270a:	b0 45 88    	mov.w     w0, 0x8b6

0000270c <.L295>:
    270c:	41 48 e2    	cp0.b     0x841
    270e:	02 00 3a    	bra       NZ, 0x2714 <.L323>
    2710:	54 48 e2    	cp0.b     0x854
    2712:	a1 00 32    	bra       Z, 0x2856 <.L324>

00002714 <.L323>:
    2714:	11 48 e2    	cp0.b     0x811
    2716:	9f 00 32    	bra       Z, 0x2856 <.L324>
    2718:	41 c1 b3    	mov.b     #0x14, w1
    271a:	00 40 eb    	clr.b     w0
    271c:	2d f9 07    	rcall     0x1978 <_FCD_04071_LCD__Cursor>
    271e:	10 c0 b3    	mov.b     #0x1, w0
    2720:	35 f9 07    	rcall     0x198c <_FCD_04071_LCD__ClearLine>
    2722:	2e c8 bf    	mov.b     0x82e, WREG
    2724:	00 80 fb    	ze        w0, w0
    2726:	80 00 eb    	clr.w     w1
    2728:	12 c0 b3    	mov.b     #0x1, w2
    272a:	57 f9 07    	rcall     0x19da <_FCD_04071_LCD__PrintFormattedNumber>
    272c:	48 48 e2    	cp0.b     0x848
    272e:	1d 00 32    	bra       Z, 0x276a <.L325>
    2730:	73 c8 bf    	mov.b     0x873, WREG
    2732:	03 00 32    	bra       Z, 0x273a <.L326>
    2734:	e1 4f 50    	sub.b     w0, #0x1, [w15]
    2736:	8f 00 3a    	bra       NZ, 0x2856 <.L324>
    2738:	0c 00 37    	bra       0x2752 <.L358>

0000273a <.L326>:
    273a:	10 c0 b3    	mov.b     #0x1, w0
    273c:	27 f9 07    	rcall     0x198c <_FCD_04071_LCD__ClearLine>
    273e:	01 01 20    	mov.w     #0x10, w1
    2740:	c0 b8 28    	mov.w     #0x8b8c, w0
    2742:	39 f9 07    	rcall     0x19b6 <_FCD_04071_LCD__PrintString>
    2744:	41 c1 b3    	mov.b     #0x14, w1
    2746:	a0 c0 b3    	mov.b     #0xa, w0
    2748:	17 f9 07    	rcall     0x1978 <_FCD_04071_LCD__Cursor>
    274a:	86 ce bf    	mov.b     0xe86, WREG
    274c:	00 80 fb    	ze        w0, w0
    274e:	54 f9 07    	rcall     0x19f8 <_FCD_04071_LCD__PrintNumber>
    2750:	82 00 37    	bra       0x2856 <.L324>

00002752 <.L358>:
    2752:	10 c0 b3    	mov.b     #0x1, w0
    2754:	1b f9 07    	rcall     0x198c <_FCD_04071_LCD__ClearLine>
    2756:	01 01 20    	mov.w     #0x10, w1
    2758:	c0 b8 28    	mov.w     #0x8b8c, w0
    275a:	2d f9 07    	rcall     0x19b6 <_FCD_04071_LCD__PrintString>
    275c:	41 c1 b3    	mov.b     #0x14, w1
    275e:	a0 c0 b3    	mov.b     #0xa, w0
    2760:	0b f9 07    	rcall     0x1978 <_FCD_04071_LCD__Cursor>
    2762:	6f ce bf    	mov.b     0xe6f, WREG
    2764:	00 80 fb    	ze        w0, w0
    2766:	48 f9 07    	rcall     0x19f8 <_FCD_04071_LCD__PrintNumber>
    2768:	76 00 37    	bra       0x2856 <.L324>

0000276a <.L325>:
    276a:	44 48 e2    	cp0.b     0x844
    276c:	2e 00 32    	bra       Z, 0x27ca <.L328>
    276e:	68 c8 bf    	mov.b     0x868, WREG
    2770:	03 00 32    	bra       Z, 0x2778 <.L329>
    2772:	e1 4f 50    	sub.b     w0, #0x1, [w15]
    2774:	70 00 3a    	bra       NZ, 0x2856 <.L324>
    2776:	1d 00 37    	bra       0x27b2 <.L359>

00002778 <.L329>:
    2778:	2e c8 bf    	mov.b     0x82e, WREG
    277a:	03 00 32    	bra       Z, 0x2782 <.L331>
    277c:	e1 4f 50    	sub.b     w0, #0x1, [w15]
    277e:	6b 00 3a    	bra       NZ, 0x2856 <.L324>
    2780:	0c 00 37    	bra       0x279a <.L360>

00002782 <.L331>:
    2782:	10 c0 b3    	mov.b     #0x1, w0
    2784:	03 f9 07    	rcall     0x198c <_FCD_04071_LCD__ClearLine>
    2786:	01 01 20    	mov.w     #0x10, w1
    2788:	50 ba 28    	mov.w     #0x8ba5, w0
    278a:	15 f9 07    	rcall     0x19b6 <_FCD_04071_LCD__PrintString>
    278c:	41 c1 b3    	mov.b     #0x14, w1
    278e:	a0 c0 b3    	mov.b     #0xa, w0
    2790:	f3 f8 07    	rcall     0x1978 <_FCD_04071_LCD__Cursor>
    2792:	70 ce bf    	mov.b     0xe70, WREG
    2794:	00 80 fb    	ze        w0, w0
    2796:	30 f9 07    	rcall     0x19f8 <_FCD_04071_LCD__PrintNumber>
    2798:	5e 00 37    	bra       0x2856 <.L324>

0000279a <.L360>:
    279a:	10 c0 b3    	mov.b     #0x1, w0
    279c:	f7 f8 07    	rcall     0x198c <_FCD_04071_LCD__ClearLine>
    279e:	01 01 20    	mov.w     #0x10, w1
    27a0:	c0 b8 28    	mov.w     #0x8b8c, w0
    27a2:	09 f9 07    	rcall     0x19b6 <_FCD_04071_LCD__PrintString>
    27a4:	41 c1 b3    	mov.b     #0x14, w1
    27a6:	a0 c0 b3    	mov.b     #0xa, w0
    27a8:	e7 f8 07    	rcall     0x1978 <_FCD_04071_LCD__Cursor>
    27aa:	86 ce bf    	mov.b     0xe86, WREG
    27ac:	00 80 fb    	ze        w0, w0
    27ae:	24 f9 07    	rcall     0x19f8 <_FCD_04071_LCD__PrintNumber>
    27b0:	52 00 37    	bra       0x2856 <.L324>

000027b2 <.L359>:
    27b2:	10 c0 b3    	mov.b     #0x1, w0
    27b4:	eb f8 07    	rcall     0x198c <_FCD_04071_LCD__ClearLine>
    27b6:	01 01 20    	mov.w     #0x10, w1
    27b8:	c0 b8 28    	mov.w     #0x8b8c, w0
    27ba:	fd f8 07    	rcall     0x19b6 <_FCD_04071_LCD__PrintString>
    27bc:	41 c1 b3    	mov.b     #0x14, w1
    27be:	a0 c0 b3    	mov.b     #0xa, w0
    27c0:	db f8 07    	rcall     0x1978 <_FCD_04071_LCD__Cursor>
    27c2:	76 ce bf    	mov.b     0xe76, WREG
    27c4:	00 80 fb    	ze        w0, w0
    27c6:	18 f9 07    	rcall     0x19f8 <_FCD_04071_LCD__PrintNumber>
    27c8:	46 00 37    	bra       0x2856 <.L324>

000027ca <.L328>:
    27ca:	40 48 e2    	cp0.b     0x840
    27cc:	38 00 32    	bra       Z, 0x283e <.L333>
    27ce:	1b c8 bf    	mov.b     0x81b, WREG
    27d0:	03 00 32    	bra       Z, 0x27d8 <.L334>
    27d2:	e1 4f 50    	sub.b     w0, #0x1, [w15]
    27d4:	40 00 3a    	bra       NZ, 0x2856 <.L324>
    27d6:	0b 00 37    	bra       0x27ee <.L361>

000027d8 <.L334>:
    27d8:	10 c0 b3    	mov.b     #0x1, w0
    27da:	d8 f8 07    	rcall     0x198c <_FCD_04071_LCD__ClearLine>
    27dc:	01 01 20    	mov.w     #0x10, w1
    27de:	80 bc 28    	mov.w     #0x8bc8, w0
    27e0:	ea f8 07    	rcall     0x19b6 <_FCD_04071_LCD__PrintString>
    27e2:	41 c1 b3    	mov.b     #0x14, w1
    27e4:	a0 c0 b3    	mov.b     #0xa, w0
    27e6:	c8 f8 07    	rcall     0x1978 <_FCD_04071_LCD__Cursor>
    27e8:	20 74 80    	mov.w     0xe84, w0
    27ea:	06 f9 07    	rcall     0x19f8 <_FCD_04071_LCD__PrintNumber>
    27ec:	34 00 37    	bra       0x2856 <.L324>

000027ee <.L361>:
    27ee:	2e c8 bf    	mov.b     0x82e, WREG
    27f0:	e1 4f 50    	sub.b     w0, #0x1, [w15]
    27f2:	0f 00 32    	bra       Z, 0x2812 <.L337>
    27f4:	03 00 39    	bra       NC, 0x27fc <.L336>
    27f6:	e2 4f 50    	sub.b     w0, #0x2, [w15]
    27f8:	2e 00 3a    	bra       NZ, 0x2856 <.L324>
    27fa:	16 00 37    	bra       0x2828 <.L362>

000027fc <.L336>:
    27fc:	10 c0 b3    	mov.b     #0x1, w0
    27fe:	c6 f8 07    	rcall     0x198c <_FCD_04071_LCD__ClearLine>
    2800:	01 01 20    	mov.w     #0x10, w1
    2802:	90 bd 28    	mov.w     #0x8bd9, w0
    2804:	d8 f8 07    	rcall     0x19b6 <_FCD_04071_LCD__PrintString>
    2806:	41 c1 b3    	mov.b     #0x14, w1
    2808:	a0 c0 b3    	mov.b     #0xa, w0
    280a:	b6 f8 07    	rcall     0x1978 <_FCD_04071_LCD__Cursor>
    280c:	c0 73 80    	mov.w     0xe78, w0
    280e:	f4 f8 07    	rcall     0x19f8 <_FCD_04071_LCD__PrintNumber>
    2810:	22 00 37    	bra       0x2856 <.L324>

00002812 <.L337>:
    2812:	10 c0 b3    	mov.b     #0x1, w0
    2814:	bb f8 07    	rcall     0x198c <_FCD_04071_LCD__ClearLine>
    2816:	01 01 20    	mov.w     #0x10, w1
    2818:	80 be 28    	mov.w     #0x8be8, w0
    281a:	cd f8 07    	rcall     0x19b6 <_FCD_04071_LCD__PrintString>
    281c:	41 c1 b3    	mov.b     #0x14, w1
    281e:	a0 c0 b3    	mov.b     #0xa, w0
    2820:	ab f8 07    	rcall     0x1978 <_FCD_04071_LCD__Cursor>
    2822:	40 41 80    	mov.w     0x828, w0
    2824:	e9 f8 07    	rcall     0x19f8 <_FCD_04071_LCD__PrintNumber>
    2826:	17 00 37    	bra       0x2856 <.L324>

00002828 <.L362>:
    2828:	10 c0 b3    	mov.b     #0x1, w0
    282a:	b0 f8 07    	rcall     0x198c <_FCD_04071_LCD__ClearLine>
    282c:	01 01 20    	mov.w     #0x10, w1
    282e:	f0 be 28    	mov.w     #0x8bef, w0
    2830:	c2 f8 07    	rcall     0x19b6 <_FCD_04071_LCD__PrintString>
    2832:	41 c1 b3    	mov.b     #0x14, w1
    2834:	a0 c0 b3    	mov.b     #0xa, w0
    2836:	a0 f8 07    	rcall     0x1978 <_FCD_04071_LCD__Cursor>
    2838:	50 74 80    	mov.w     0xe8a, w0
    283a:	de f8 07    	rcall     0x19f8 <_FCD_04071_LCD__PrintNumber>
    283c:	0c 00 37    	bra       0x2856 <.L324>

0000283e <.L333>:
    283e:	3a 48 e2    	cp0.b     0x83a
    2840:	0a 00 32    	bra       Z, 0x2856 <.L324>
    2842:	10 c0 b3    	mov.b     #0x1, w0
    2844:	a3 f8 07    	rcall     0x198c <_FCD_04071_LCD__ClearLine>
    2846:	01 01 20    	mov.w     #0x10, w1
    2848:	60 be 28    	mov.w     #0x8be6, w0
    284a:	b5 f8 07    	rcall     0x19b6 <_FCD_04071_LCD__PrintString>
    284c:	41 c1 b3    	mov.b     #0x14, w1
    284e:	a0 c0 b3    	mov.b     #0xa, w0
    2850:	93 f8 07    	rcall     0x1978 <_FCD_04071_LCD__Cursor>
    2852:	90 74 80    	mov.w     0xe92, w0
    2854:	d1 f8 07    	rcall     0x19f8 <_FCD_04071_LCD__PrintNumber>

00002856 <.L324>:
    2856:	72 48 e2    	cp0.b     0x872
    2858:	0b 00 3a    	bra       NZ, 0x2870 <.L339>
    285a:	00 48 e2    	cp0.b     0x800
    285c:	09 00 3a    	bra       NZ, 0x2870 <.L339>
    285e:	10 48 e2    	cp0.b     0x810
    2860:	07 00 3a    	bra       NZ, 0x2870 <.L339>
    2862:	1a 48 e2    	cp0.b     0x81a
    2864:	05 00 3a    	bra       NZ, 0x2870 <.L339>
    2866:	1f 48 e2    	cp0.b     0x81f
    2868:	03 00 3a    	bra       NZ, 0x2870 <.L339>
    286a:	2c 48 e2    	cp0.b     0x82c
    286c:	01 00 32    	bra       Z, 0x2870 <.L339>
    286e:	2c 68 ef    	clr.b     0x82c

00002870 <.L339>:
    2870:	2d 48 e2    	cp0.b     0x82d
    2872:	03 00 3a    	bra       NZ, 0x287a <.L340>
    2874:	55 48 e2    	cp0.b     0x855
    2876:	01 00 32    	bra       Z, 0x287a <.L340>
    2878:	55 68 ef    	clr.b     0x855

0000287a <.L340>:
    287a:	41 48 e2    	cp0.b     0x841
    287c:	05 00 3a    	bra       NZ, 0x2888 <.L260>
    287e:	54 48 e2    	cp0.b     0x854
    2880:	03 00 3a    	bra       NZ, 0x2888 <.L260>
    2882:	11 48 e2    	cp0.b     0x811
    2884:	01 00 32    	bra       Z, 0x2888 <.L260>
    2886:	11 68 ef    	clr.b     0x811

00002888 <.L260>:
    2888:	4f 05 be    	mov.d     [--w15], w10
    288a:	4f 04 be    	mov.d     [--w15], w8
    288c:	00 00 06    	return    

0000288e <_FCM_Read_ADC>:
    288e:	88 9f be    	mov.d     w8, [w15++]
    2890:	8a 1f 78    	mov.w     w10, [w15++]
    2892:	e8 ff 2f    	mov.w     #0xfffe, w8
    2894:	e0 2d 20    	mov.w     #0x2de, w0
    2896:	10 08 64    	and.w     w8, [w0], [w0]
    2898:	11 17 80    	mov.w     0x2e2, w1
    289a:	88 80 60    	and.w     w1, w8, w1
    289c:	01 17 88    	mov.w     w1, 0x2e0
    289e:	62 f7 07    	rcall     0x1764 <_FCD_06c41_SPI_Master1__GetChar>
    28a0:	80 44 78    	mov.b     w0, w9
    28a2:	60 f7 07    	rcall     0x1764 <_FCD_06c41_SPI_Master1__GetChar>
    28a4:	00 45 78    	mov.b     w0, w10
    28a6:	5e f7 07    	rcall     0x1764 <_FCD_06c41_SPI_Master1__GetChar>
    28a8:	e1 2d 20    	mov.w     #0x2de, w1
    28aa:	91 08 64    	and.w     w8, [w1], [w1]
    28ac:	11 17 80    	mov.w     0x2e2, w1
    28ae:	01 00 a0    	bset.w    w1, #0x0
    28b0:	01 17 88    	mov.w     w1, 0x2e0
    28b2:	cc 4c dd    	sl.w      w9, #0xc, w9
    28b4:	0a 85 fb    	ze        w10, w10
    28b6:	44 55 dd    	sl.w      w10, #0x4, w10
    28b8:	89 04 75    	ior.w     w10, w9, w9
    28ba:	80 80 fb    	ze        w0, w1
    28bc:	c4 08 de    	lsr.w     w1, #0x4, w1
    28be:	09 80 70    	ior.w     w1, w9, w0
    28c0:	4f 05 78    	mov.w     [--w15], w10
    28c2:	4f 04 be    	mov.d     [--w15], w8
    28c4:	00 00 06    	return    

000028c6 <_FCM_Write_DAC>:
    28c6:	88 9f be    	mov.d     w8, [w15++]
    28c8:	80 04 78    	mov.w     w0, w9
    28ca:	d8 ff 2f    	mov.w     #0xfffd, w8
    28cc:	e0 2d 20    	mov.w     #0x2de, w0
    28ce:	10 08 64    	and.w     w8, [w0], [w0]
    28d0:	10 17 80    	mov.w     0x2e2, w0
    28d2:	08 00 60    	and.w     w0, w8, w0
    28d4:	00 17 88    	mov.w     w0, 0x2e0
    28d6:	00 40 eb    	clr.b     w0
    28d8:	44 f7 07    	rcall     0x1762 <_FCD_06c41_SPI_Master1__SendChar>
    28da:	48 48 de    	lsr.w     w9, #0x8, w0
    28dc:	42 f7 07    	rcall     0x1762 <_FCD_06c41_SPI_Master1__SendChar>
    28de:	09 40 78    	mov.b     w9, w0
    28e0:	40 f7 07    	rcall     0x1762 <_FCD_06c41_SPI_Master1__SendChar>
    28e2:	e0 2d 20    	mov.w     #0x2de, w0
    28e4:	10 08 64    	and.w     w8, [w0], [w0]
    28e6:	10 17 80    	mov.w     0x2e2, w0
    28e8:	00 10 a0    	bset.w    w0, #0x1
    28ea:	00 17 88    	mov.w     w0, 0x2e0
    28ec:	4f 04 be    	mov.d     [--w15], w8
    28ee:	00 00 06    	return    

000028f0 <_FCM_Timer1_Interrupt>:
    28f0:	22 00 f8    	push      0x22
    28f2:	24 00 f8    	push      0x24
    28f4:	26 00 f8    	push      0x26
    28f6:	28 00 f8    	push      0x28
    28f8:	2a 00 f8    	push      0x2a
    28fa:	2c 00 f8    	push      0x2c
    28fc:	c8 ff 07    	rcall     0x288e <_FCM_Read_ADC>
    28fe:	c0 45 88    	mov.w     w0, 0x8b8
    2900:	00 00 28    	mov.w     #0x8000, w0
    2902:	b8 08 b4    	add.w     0x8b8, WREG
    2904:	10 42 88    	mov.w     w0, 0x842
    2906:	b0 40 80    	mov.w     0x816, w0
    2908:	00 00 40    	add.w     w0, w0, w0
    290a:	c1 8b 20    	mov.w     #0x8bc, w1
    290c:	12 42 80    	mov.w     0x842, w2
    290e:	82 30 78    	mov.w     w2, [w1+w0]
    2910:	b0 40 80    	mov.w     0x816, w0
    2912:	d2 73 80    	mov.w     0xe7a, w2
    2914:	00 00 e8    	inc.w     w0, w0
    2916:	11 00 09    	repeat    #0x11
    2918:	02 80 d8    	div.uw    w0, w2
    291a:	b1 40 88    	mov.w     w1, 0x816
    291c:	42 88 d5    	asr.w     0x842, WREG
    291e:	20 72 88    	mov.w     w0, 0xe44
    2920:	48 48 e2    	cp0.b     0x848
    2922:	60 00 32    	bra       Z, 0x29e4 <.L366>
    2924:	e0 73 80    	mov.w     0xe7c, w0
    2926:	72 0e e3    	cp.w      0xe72
    2928:	06 00 32    	bra       Z, 0x2936 <.L367>
    292a:	7c 0e f8    	push      0xe7c
    292c:	2a 08 f9    	pop       0x82a
    292e:	72 0e f8    	push      0xe72
    2930:	7c 0e f9    	pop       0xe7c
    2932:	8c 0e f8    	push      0xe8c
    2934:	5e 0e f9    	pop       0xe5e

00002936 <.L367>:
    2936:	44 00 a9    	bclr.b    0x44, #0x0
    2938:	12 01 c3    	clr       A
    293a:	54 41 80    	mov.w     0x82a, w4
    293c:	e5 73 80    	mov.w     0xe7c, w5
    293e:	f6 72 80    	mov.w     0xe5e, w6
    2940:	04 00 ca    	lac       w4, #0x0, A
    2942:	12 41 c1    	msc       w4 * w6, A
    2944:	12 01 c4    	mac       w5 * w6, A
    2946:	20 01 80    	mov.w     0x24, w0
    2948:	d0 45 88    	mov.w     w0, 0x8ba
    294a:	44 00 a8    	bset.b    0x44, #0x0
    294c:	f0 72 80    	mov.w     0xe5e, w0
    294e:	8c 0e b4    	add.w     0xe8c, WREG
    2950:	f0 72 88    	mov.w     w0, 0xe5e
    2952:	73 c8 bf    	mov.b     0x873, WREG
    2954:	03 00 32    	bra       Z, 0x295c <.L369>
    2956:	e1 4f 50    	sub.b     w0, #0x1, [w15]
    2958:	6f 01 3a    	bra       NZ, 0x2c38 <.L368>
    295a:	13 00 37    	bra       0x2982 <.L389>

0000295c <.L369>:
    295c:	44 00 a9    	bclr.b    0x44, #0x0
    295e:	12 01 c3    	clr       A
    2960:	12 81 c3    	clr       B
    2962:	14 42 80    	mov.w     0x842, w4
    2964:	d5 45 80    	mov.w     0x8ba, w5
    2966:	13 81 c0    	mpy       w4 * w5, B
    2968:	05 80 cc    	sac       B, #0x0, w5
    296a:	12 81 c3    	clr       B
    296c:	12 01 c3    	clr       A
    296e:	46 74 80    	mov.w     0xe88, w6
    2970:	04 00 ca    	lac       w4, #0x0, A
    2972:	12 41 c1    	msc       w4 * w6, A
    2974:	12 01 c4    	mac       w5 * w6, A
    2976:	20 01 80    	mov.w     0x24, w0
    2978:	10 42 88    	mov.w     w0, 0x842
    297a:	12 81 c3    	clr       B
    297c:	12 01 c3    	clr       A
    297e:	44 00 a8    	bset.b    0x44, #0x0
    2980:	5b 01 37    	bra       0x2c38 <.L368>

00002982 <.L389>:
    2982:	90 73 80    	mov.w     0xe72, w0
    2984:	52 73 80    	mov.w     0xe6a, w2
    2986:	11 00 09    	repeat    #0x11
    2988:	02 80 d8    	div.uw    w0, w2
    298a:	40 73 88    	mov.w     w0, 0xe68
    298c:	e0 40 80    	mov.w     0x81c, w0
    298e:	68 0e e3    	cp.w      0xe68
    2990:	06 00 32    	bra       Z, 0x299e <.L371>
    2992:	1c 08 f8    	push      0x81c
    2994:	2a 08 f9    	pop       0x82a
    2996:	68 0e f8    	push      0xe68
    2998:	1c 08 f9    	pop       0x81c
    299a:	8c 0e f8    	push      0xe8c
    299c:	60 0e f9    	pop       0xe60

0000299e <.L371>:
    299e:	44 00 a9    	bclr.b    0x44, #0x0
    29a0:	12 01 c3    	clr       A
    29a2:	12 81 c3    	clr       B
    29a4:	b0 40 80    	mov.w     0x816, w0
    29a6:	51 41 80    	mov.w     0x82a, w1
    29a8:	d2 73 80    	mov.w     0xe7a, w2
    29aa:	80 80 40    	add.w     w1, w0, w1
    29ac:	11 00 09    	repeat    #0x11
    29ae:	82 80 d8    	div.uw    w1, w2
    29b0:	81 80 40    	add.w     w1, w1, w1
    29b2:	c4 8b 20    	mov.w     #0x8bc, w4
    29b4:	e4 80 78    	mov.w     [w4+w1], w1
    29b6:	a1 40 88    	mov.w     w1, 0x814
    29b8:	b1 40 80    	mov.w     0x816, w1
    29ba:	e3 40 80    	mov.w     0x81c, w3
    29bc:	d2 73 80    	mov.w     0xe7a, w2
    29be:	81 80 41    	add.w     w3, w1, w1
    29c0:	11 00 09    	repeat    #0x11
    29c2:	82 80 d8    	div.uw    w1, w2
    29c4:	81 80 40    	add.w     w1, w1, w1
    29c6:	e4 80 78    	mov.w     [w4+w1], w1
    29c8:	71 40 88    	mov.w     w1, 0x80e
    29ca:	a4 40 80    	mov.w     0x814, w4
    29cc:	75 40 80    	mov.w     0x80e, w5
    29ce:	06 73 80    	mov.w     0xe60, w6
    29d0:	04 80 ca    	lac       w4, #0x0, B
    29d2:	12 c1 c1    	msc       w4 * w6, B
    29d4:	12 81 c4    	mac       w5 * w6, B
    29d6:	50 01 80    	mov.w     0x2a, w0
    29d8:	10 42 88    	mov.w     w0, 0x842
    29da:	44 00 a8    	bset.b    0x44, #0x0
    29dc:	00 73 80    	mov.w     0xe60, w0
    29de:	8c 0e b4    	add.w     0xe8c, WREG
    29e0:	00 73 88    	mov.w     w0, 0xe60
    29e2:	2a 01 37    	bra       0x2c38 <.L368>

000029e4 <.L366>:
    29e4:	44 48 e2    	cp0.b     0x844
    29e6:	9a 00 32    	bra       Z, 0x2b1c <.L372>
    29e8:	68 c8 bf    	mov.b     0x868, WREG
    29ea:	03 00 32    	bra       Z, 0x29f2 <.L373>
    29ec:	e1 4f 50    	sub.b     w0, #0x1, [w15]
    29ee:	24 01 3a    	bra       NZ, 0x2c38 <.L368>
    29f0:	5e 00 37    	bra       0x2aae <.L390>

000029f2 <.L373>:
    29f2:	50 43 80    	mov.w     0x86a, w0
    29f4:	18 08 e3    	cp.w      0x818
    29f6:	0a 00 32    	bra       Z, 0x2a0c <.L375>
    29f8:	50 43 80    	mov.w     0x86a, w0
    29fa:	18 08 e3    	cp.w      0x818
    29fc:	02 00 34    	bra       LE, 0x2a02 <.L376>
    29fe:	6a 28 ec    	inc.w     0x86a
    2a00:	07 00 37    	bra       0x2a10 <.L377>

00002a02 <.L376>:
    2a02:	50 43 80    	mov.w     0x86a, w0
    2a04:	18 08 e3    	cp.w      0x818
    2a06:	04 00 3d    	bra       GE, 0x2a10 <.L377>
    2a08:	6a 28 ed    	dec.w     0x86a
    2a0a:	02 00 37    	bra       0x2a10 <.L377>

00002a0c <.L375>:
    2a0c:	18 08 f8    	push      0x818
    2a0e:	6a 08 f9    	pop       0x86a

00002a10 <.L377>:
    2a10:	1e 68 ef    	clr.b     0x81e
    2a12:	1e c8 bf    	mov.b     0x81e, WREG
    2a14:	e3 4f 50    	sub.b     w0, #0x3, [w15]
    2a16:	16 00 3e    	bra       GTU, 0x2a44 <.L378>

00002a18 <.L379>:
    2a18:	1e c8 bf    	mov.b     0x81e, WREG
    2a1a:	80 82 fb    	ze        w0, w5
    2a1c:	e1 81 20    	mov.w     #0x81e, w1
    2a1e:	91 40 78    	mov.b     [w1], w1
    2a20:	81 80 fb    	ze        w1, w1
    2a22:	81 80 40    	add.w     w1, w1, w1
    2a24:	82 8a 20    	mov.w     #0x8a8, w2
    2a26:	e2 81 78    	mov.w     [w2+w1], w3
    2a28:	b1 40 80    	mov.w     0x816, w1
    2a2a:	54 43 80    	mov.w     0x86a, w4
    2a2c:	d2 73 80    	mov.w     0xe7a, w2
    2a2e:	81 00 42    	add.w     w4, w1, w1
    2a30:	83 80 40    	add.w     w1, w3, w1
    2a32:	11 00 09    	repeat    #0x11
    2a34:	82 80 d8    	div.uw    w1, w2
    2a36:	05 80 42    	add.w     w5, w5, w0
    2a38:	e3 88 20    	mov.w     #0x88e, w3
    2a3a:	81 31 78    	mov.w     w1, [w3+w0]
    2a3c:	1e 68 ec    	inc.b     0x81e
    2a3e:	1e c8 bf    	mov.b     0x81e, WREG
    2a40:	e3 4f 50    	sub.b     w0, #0x3, [w15]
    2a42:	ea ff 36    	bra       LEU, 0x2a18 <.L379>

00002a44 <.L378>:
    2a44:	70 44 80    	mov.w     0x88e, w0
    2a46:	00 00 40    	add.w     w0, w0, w0
    2a48:	c1 8b 20    	mov.w     #0x8bc, w1
    2a4a:	61 00 78    	mov.w     [w1+w0], w0
    2a4c:	cf 80 de    	asr.w     w0, #0xf, w1
    2a4e:	50 40 88    	mov.w     w0, 0x80a
    2a50:	61 40 88    	mov.w     w1, 0x80c
    2a52:	10 c0 b3    	mov.b     #0x1, w0
    2a54:	1e e8 b7    	mov.b     WREG, 0x81e
    2a56:	70 ce bf    	mov.b     0xe70, WREG
    2a58:	1e 48 e3    	cp.b      0x81e
    2a5a:	13 00 31    	bra       C, 0x2a82 <.L380>

00002a5c <.L381>:
    2a5c:	1e c8 bf    	mov.b     0x81e, WREG
    2a5e:	00 80 fb    	ze        w0, w0
    2a60:	00 00 40    	add.w     w0, w0, w0
    2a62:	e1 88 20    	mov.w     #0x88e, w1
    2a64:	61 00 78    	mov.w     [w1+w0], w0
    2a66:	00 00 40    	add.w     w0, w0, w0
    2a68:	c1 8b 20    	mov.w     #0x8bc, w1
    2a6a:	61 01 78    	mov.w     [w1+w0], w2
    2a6c:	50 40 80    	mov.w     0x80a, w0
    2a6e:	61 40 80    	mov.w     0x80c, w1
    2a70:	cf 91 de    	asr.w     w2, #0xf, w3
    2a72:	00 00 41    	add.w     w2, w0, w0
    2a74:	81 80 49    	addc.w    w3, w1, w1
    2a76:	50 40 88    	mov.w     w0, 0x80a
    2a78:	61 40 88    	mov.w     w1, 0x80c
    2a7a:	1e 68 ec    	inc.b     0x81e
    2a7c:	70 ce bf    	mov.b     0xe70, WREG
    2a7e:	1e 48 e3    	cp.b      0x81e
    2a80:	ed ff 39    	bra       NC, 0x2a5c <.L381>

00002a82 <.L380>:
    2a82:	50 40 80    	mov.w     0x80a, w0
    2a84:	61 40 80    	mov.w     0x80c, w1
    2a86:	02 e7 20    	mov.w     #0xe70, w2
    2a88:	12 41 78    	mov.b     [w2], w2
    2a8a:	02 81 fb    	ze        w2, w2
    2a8c:	80 01 eb    	clr.w     w3
    2a8e:	aa ed 07    	rcall     0x5e4 <___divsi3> <.libm>
    2a90:	50 40 88    	mov.w     w0, 0x80a
    2a92:	61 40 88    	mov.w     w1, 0x80c
    2a94:	50 40 80    	mov.w     0x80a, w0
    2a96:	61 40 80    	mov.w     0x80c, w1
    2a98:	b0 44 88    	mov.w     w0, 0x896
    2a9a:	12 01 c3    	clr       A
    2a9c:	14 42 80    	mov.w     0x842, w4
    2a9e:	b5 44 80    	mov.w     0x896, w5
    2aa0:	46 74 80    	mov.w     0xe88, w6
    2aa2:	04 00 ca    	lac       w4, #0x0, A
    2aa4:	12 41 c1    	msc       w4 * w6, A
    2aa6:	12 01 c4    	mac       w5 * w6, A
    2aa8:	20 01 80    	mov.w     0x24, w0
    2aaa:	10 42 88    	mov.w     w0, 0x842
    2aac:	c5 00 37    	bra       0x2c38 <.L368>

00002aae <.L390>:
    2aae:	90 73 80    	mov.w     0xe72, w0
    2ab0:	32 73 80    	mov.w     0xe66, w2
    2ab2:	11 00 09    	repeat    #0x11
    2ab4:	02 80 d8    	div.uw    w0, w2
    2ab6:	f0 41 88    	mov.w     w0, 0x83e
    2ab8:	80 74 80    	mov.w     0xe90, w0
    2aba:	3e 08 e3    	cp.w      0x83e
    2abc:	06 00 32    	bra       Z, 0x2aca <.L382>
    2abe:	90 0e f8    	push      0xe90
    2ac0:	2a 08 f9    	pop       0x82a
    2ac2:	3e 08 f8    	push      0x83e
    2ac4:	90 0e f9    	pop       0xe90
    2ac6:	8c 0e f8    	push      0xe8c
    2ac8:	60 0e f9    	pop       0xe60

00002aca <.L382>:
    2aca:	44 00 a9    	bclr.b    0x44, #0x0
    2acc:	12 01 c3    	clr       A
    2ace:	12 81 c3    	clr       B
    2ad0:	b0 40 80    	mov.w     0x816, w0
    2ad2:	51 41 80    	mov.w     0x82a, w1
    2ad4:	d2 73 80    	mov.w     0xe7a, w2
    2ad6:	80 80 40    	add.w     w1, w0, w1
    2ad8:	11 00 09    	repeat    #0x11
    2ada:	82 80 d8    	div.uw    w1, w2
    2adc:	81 80 40    	add.w     w1, w1, w1
    2ade:	c4 8b 20    	mov.w     #0x8bc, w4
    2ae0:	e4 80 78    	mov.w     [w4+w1], w1
    2ae2:	a1 40 88    	mov.w     w1, 0x814
    2ae4:	b1 40 80    	mov.w     0x816, w1
    2ae6:	83 74 80    	mov.w     0xe90, w3
    2ae8:	d2 73 80    	mov.w     0xe7a, w2
    2aea:	81 80 41    	add.w     w3, w1, w1
    2aec:	11 00 09    	repeat    #0x11
    2aee:	82 80 d8    	div.uw    w1, w2
    2af0:	81 80 40    	add.w     w1, w1, w1
    2af2:	e4 80 78    	mov.w     [w4+w1], w1
    2af4:	71 40 88    	mov.w     w1, 0x80e
    2af6:	a4 40 80    	mov.w     0x814, w4
    2af8:	75 40 80    	mov.w     0x80e, w5
    2afa:	06 73 80    	mov.w     0xe60, w6
    2afc:	04 00 ca    	lac       w4, #0x0, A
    2afe:	12 41 c1    	msc       w4 * w6, A
    2b00:	12 01 c4    	mac       w5 * w6, A
    2b02:	20 01 80    	mov.w     0x24, w0
    2b04:	d0 45 88    	mov.w     w0, 0x8ba
    2b06:	44 00 a8    	bset.b    0x44, #0x0
    2b08:	00 73 80    	mov.w     0xe60, w0
    2b0a:	8c 0e b4    	add.w     0xe8c, WREG
    2b0c:	00 73 88    	mov.w     w0, 0xe60
    2b0e:	d0 45 80    	mov.w     0x8ba, w0
    2b10:	42 08 b4    	add.w     0x842, WREG
    2b12:	22 00 20    	mov.w     #0x2, w2
    2b14:	11 00 09    	repeat    #0x11
    2b16:	02 00 d8    	div.sw    w0, w2
    2b18:	10 42 88    	mov.w     w0, 0x842
    2b1a:	8e 00 37    	bra       0x2c38 <.L368>

00002b1c <.L372>:
    2b1c:	40 48 e2    	cp0.b     0x840
    2b1e:	52 00 32    	bra       Z, 0x2bc4 <.L383>
    2b20:	1b c8 bf    	mov.b     0x81b, WREG
    2b22:	03 00 32    	bra       Z, 0x2b2a <.L384>
    2b24:	e1 4f 50    	sub.b     w0, #0x1, [w15]
    2b26:	88 00 3a    	bra       NZ, 0x2c38 <.L368>
    2b28:	19 00 37    	bra       0x2b5c <.L391>

00002b2a <.L384>:
    2b2a:	62 28 ec    	inc.w     0x862
    2b2c:	10 43 80    	mov.w     0x862, w0
    2b2e:	12 08 e3    	cp.w      0x812
    2b30:	0a 00 3e    	bra       GTU, 0x2b46 <.L386>
    2b32:	62 28 ef    	clr.w     0x862
    2b34:	b1 40 80    	mov.w     0x816, w1
    2b36:	d2 73 80    	mov.w     0xe7a, w2
    2b38:	81 80 e8    	inc2.w    w1, w1
    2b3a:	11 00 09    	repeat    #0x11
    2b3c:	82 80 d8    	div.uw    w1, w2
    2b3e:	81 80 40    	add.w     w1, w1, w1
    2b40:	c0 8b 20    	mov.w     #0x8bc, w0
    2b42:	60 80 78    	mov.w     [w0+w1], w0
    2b44:	10 42 88    	mov.w     w0, 0x842

00002b46 <.L386>:
    2b46:	11 42 80    	mov.w     0x842, w1
    2b48:	20 74 80    	mov.w     0xe84, w0
    2b4a:	70 00 10    	subr.w    w0, #0x10, w0
    2b4c:	00 88 de    	asr.w     w1, w0, w0
    2b4e:	10 42 88    	mov.w     w0, 0x842
    2b50:	11 42 80    	mov.w     0x842, w1
    2b52:	20 74 80    	mov.w     0xe84, w0
    2b54:	70 00 10    	subr.w    w0, #0x10, w0
    2b56:	00 08 dd    	sl.w      w1, w0, w0
    2b58:	10 42 88    	mov.w     w0, 0x842
    2b5a:	6e 00 37    	bra       0x2c38 <.L368>

00002b5c <.L391>:
    2b5c:	10 42 80    	mov.w     0x842, w0
    2b5e:	cf 80 de    	asr.w     w0, #0xf, w1
    2b60:	60 72 88    	mov.w     w0, 0xe4c
    2b62:	71 72 88    	mov.w     w1, 0xe4e
    2b64:	72 43 80    	mov.w     0x86e, w2
    2b66:	60 72 80    	mov.w     0xe4c, w0
    2b68:	71 72 80    	mov.w     0xe4e, w1
    2b6a:	cf 91 de    	asr.w     w2, #0xf, w3
    2b6c:	00 00 41    	add.w     w2, w0, w0
    2b6e:	81 80 49    	addc.w    w3, w1, w1
    2b70:	60 72 88    	mov.w     w0, 0xe4c
    2b72:	71 72 88    	mov.w     w1, 0xe4e
    2b74:	a0 73 80    	mov.w     0xe74, w0
    2b76:	62 72 80    	mov.w     0xe4c, w2
    2b78:	73 72 80    	mov.w     0xe4e, w3
    2b7a:	44 06 20    	mov.w     #0x64, w4
    2b7c:	11 00 09    	repeat    #0x11
    2b7e:	04 80 d8    	div.uw    w0, w4
    2b80:	80 00 eb    	clr.w     w1
    2b82:	00 9a b9    	mul.ss    w3, w0, w4
    2b84:	02 00 b8    	mul.uu    w0, w2, w0
    2b86:	81 00 42    	add.w     w4, w1, w1
    2b88:	60 72 88    	mov.w     w0, 0xe4c
    2b8a:	71 72 88    	mov.w     w1, 0xe4e
    2b8c:	72 74 80    	mov.w     0xe8e, w2
    2b8e:	60 72 80    	mov.w     0xe4c, w0
    2b90:	71 72 80    	mov.w     0xe4e, w1
    2b92:	cf 91 de    	asr.w     w2, #0xf, w3
    2b94:	80 0f 51    	sub.w     w2, w0, [w15]
    2b96:	81 8f 59    	subb.w    w3, w1, [w15]
    2b98:	05 00 3d    	bra       GE, 0x2ba4 <.L387>
    2b9a:	70 74 80    	mov.w     0xe8e, w0
    2b9c:	cf 80 de    	asr.w     w0, #0xf, w1
    2b9e:	60 72 88    	mov.w     w0, 0xe4c
    2ba0:	71 72 88    	mov.w     w1, 0xe4e
    2ba2:	0c 00 37    	bra       0x2bbc <.L388>

00002ba4 <.L387>:
    2ba4:	72 74 80    	mov.w     0xe8e, w2
    2ba6:	60 72 80    	mov.w     0xe4c, w0
    2ba8:	71 72 80    	mov.w     0xe4e, w1
    2baa:	02 01 ea    	neg.w     w2, w2
    2bac:	cf 91 de    	asr.w     w2, #0xf, w3
    2bae:	80 0f 51    	sub.w     w2, w0, [w15]
    2bb0:	81 8f 59    	subb.w    w3, w1, [w15]
    2bb2:	04 00 34    	bra       LE, 0x2bbc <.L388>
    2bb4:	8e 0e ee    	neg.w     0xe8e, WREG
    2bb6:	cf 80 de    	asr.w     w0, #0xf, w1
    2bb8:	60 72 88    	mov.w     w0, 0xe4c
    2bba:	71 72 88    	mov.w     w1, 0xe4e

00002bbc <.L388>:
    2bbc:	60 72 80    	mov.w     0xe4c, w0
    2bbe:	71 72 80    	mov.w     0xe4e, w1
    2bc0:	10 42 88    	mov.w     w0, 0x842
    2bc2:	3a 00 37    	bra       0x2c38 <.L368>

00002bc4 <.L383>:
    2bc4:	3a 48 e2    	cp0.b     0x83a
    2bc6:	38 00 32    	bra       Z, 0x2c38 <.L368>
    2bc8:	12 01 c3    	clr       A
    2bca:	44 00 a9    	bclr.b    0x44, #0x0
    2bcc:	44 e0 a8    	bset.b    0x44, #0x7
    2bce:	44 0e f8    	push      0xe44
    2bd0:	64 08 f9    	pop       0x864
    2bd2:	b0 08 f8    	push      0x8b0
    2bd4:	58 08 f9    	pop       0x858
    2bd6:	24 43 80    	mov.w     0x864, w4
    2bd8:	c5 42 80    	mov.w     0x858, w5
    2bda:	12 01 c0    	mac       w4 * w5, A
    2bdc:	46 0e f8    	push      0xe46
    2bde:	64 08 f9    	pop       0x864
    2be0:	b2 08 f8    	push      0x8b2
    2be2:	58 08 f9    	pop       0x858
    2be4:	24 43 80    	mov.w     0x864, w4
    2be6:	c5 42 80    	mov.w     0x858, w5
    2be8:	12 41 c0    	msc       w4 * w5, A
    2bea:	48 0e f8    	push      0xe48
    2bec:	64 08 f9    	pop       0x864
    2bee:	b4 08 f8    	push      0x8b4
    2bf0:	58 08 f9    	pop       0x858
    2bf2:	24 43 80    	mov.w     0x864, w4
    2bf4:	c5 42 80    	mov.w     0x858, w5
    2bf6:	12 41 c0    	msc       w4 * w5, A
    2bf8:	4a 0e f8    	push      0xe4a
    2bfa:	64 08 f9    	pop       0x864
    2bfc:	b6 08 f8    	push      0x8b6
    2bfe:	58 08 f9    	pop       0x858
    2c00:	24 43 80    	mov.w     0x864, w4
    2c02:	c5 42 80    	mov.w     0x858, w5
    2c04:	12 41 c0    	msc       w4 * w5, A
    2c06:	20 01 80    	mov.w     0x24, w0
    2c08:	a0 43 88    	mov.w     w0, 0x874
    2c0a:	44 00 a8    	bset.b    0x44, #0x0
    2c0c:	44 e0 a9    	bclr.b    0x44, #0x7
    2c0e:	a0 43 80    	mov.w     0x874, w0
    2c10:	00 00 40    	add.w     w0, w0, w0
    2c12:	a0 43 88    	mov.w     w0, 0x874
    2c14:	a0 43 80    	mov.w     0x874, w0
    2c16:	cf 80 de    	asr.w     w0, #0xf, w1
    2c18:	50 40 88    	mov.w     w0, 0x80a
    2c1a:	61 40 88    	mov.w     w1, 0x80c
    2c1c:	10 42 80    	mov.w     0x842, w0
    2c1e:	54 40 80    	mov.w     0x80a, w4
    2c20:	65 40 80    	mov.w     0x80c, w5
    2c22:	22 00 20    	mov.w     #0x2, w2
    2c24:	11 00 09    	repeat    #0x11
    2c26:	02 00 d8    	div.sw    w0, w2
    2c28:	4f 81 de    	asr.w     w0, #0xf, w2
    2c2a:	04 00 40    	add.w     w0, w4, w0
    2c2c:	85 00 49    	addc.w    w2, w5, w1
    2c2e:	50 40 88    	mov.w     w0, 0x80a
    2c30:	61 40 88    	mov.w     w1, 0x80c
    2c32:	50 40 80    	mov.w     0x80a, w0
    2c34:	61 40 80    	mov.w     0x80c, w1
    2c36:	10 42 88    	mov.w     w0, 0x842

00002c38 <.L368>:
    2c38:	48 0e f8    	push      0xe48
    2c3a:	4a 0e f9    	pop       0xe4a
    2c3c:	42 08 f8    	push      0x842
    2c3e:	48 0e f9    	pop       0xe48
    2c40:	44 0e f8    	push      0xe44
    2c42:	46 0e f9    	pop       0xe46
    2c44:	00 00 28    	mov.w     #0x8000, w0
    2c46:	42 08 b4    	add.w     0x842, WREG
    2c48:	c0 45 88    	mov.w     w0, 0x8b8
    2c4a:	c0 45 80    	mov.w     0x8b8, w0
    2c4c:	3c fe 07    	rcall     0x28c6 <_FCM_Write_DAC>
    2c4e:	2c 00 f9    	pop       0x2c
    2c50:	2a 00 f9    	pop       0x2a
    2c52:	28 00 f9    	pop       0x28
    2c54:	26 00 f9    	pop       0x26
    2c56:	24 00 f9    	pop       0x24
    2c58:	22 00 f9    	pop       0x22
    2c5a:	00 00 06    	return    

00002c5c <_main>:
    2c5c:	88 9f be    	mov.d     w8, [w15++]
    2c5e:	8a 9f be    	mov.d     w10, [w15++]
    2c60:	a8 a2 ef    	setm.w    0x2a8
    2c62:	03 f8 07    	rcall     0x1c6a <_FCD_08f41_adc_base__RawEnable>
    2c64:	82 f5 07    	rcall     0x176a <_FCD_06c41_SPI_Master1__Initialise>
    2c66:	12 f7 07    	rcall     0x1a8c <_FCD_04071_LCD__Start>
    2c68:	80 40 eb    	clr.b     w1
    2c6a:	01 40 78    	mov.b     w1, w0
    2c6c:	85 f6 07    	rcall     0x1978 <_FCD_04071_LCD__Cursor>
    2c6e:	a1 00 20    	mov.w     #0xa, w1
    2c70:	70 bf 28    	mov.w     #0x8bf7, w0
    2c72:	a1 f6 07    	rcall     0x19b6 <_FCD_04071_LCD__PrintString>
    2c74:	41 c1 b3    	mov.b     #0x14, w1
    2c76:	00 40 eb    	clr.b     w0
    2c78:	7f f6 07    	rcall     0x1978 <_FCD_04071_LCD__Cursor>
    2c7a:	91 00 20    	mov.w     #0x9, w1
    2c7c:	10 c0 28    	mov.w     #0x8c01, w0
    2c7e:	9b f6 07    	rcall     0x19b6 <_FCD_04071_LCD__PrintString>
    2c80:	90 12 20    	mov.w     #0x129, w0
    2c82:	40 45 88    	mov.w     w0, 0x8a8
    2c84:	e0 1d 20    	mov.w     #0x1de, w0
    2c86:	50 45 88    	mov.w     w0, 0x8aa
    2c88:	50 14 20    	mov.w     #0x145, w0
    2c8a:	60 45 88    	mov.w     w0, 0x8ac
    2c8c:	70 1f 20    	mov.w     #0x1f7, w0
    2c8e:	70 45 88    	mov.w     w0, 0x8ae
    2c90:	81 e0 a8    	bset.b    0x81, #0x7
    2c92:	95 80 a8    	bset.b    0x95, #0x4
    2c94:	95 a0 a8    	bset.b    0x95, #0x5
    2c96:	95 c0 a8    	bset.b    0x95, #0x6
    2c98:	97 00 a8    	bset.b    0x97, #0x0
    2c9a:	97 20 a8    	bset.b    0x97, #0x1
    2c9c:	97 40 a9    	bclr.b    0x97, #0x2
    2c9e:	97 80 a8    	bset.b    0x97, #0x4
    2ca0:	97 a0 a9    	bclr.b    0x97, #0x5
    2ca2:	97 c0 a8    	bset.b    0x97, #0x6
    2ca4:	9e 80 a9    	bclr.b    0x9e, #0x4
    2ca6:	9e a0 a9    	bclr.b    0x9e, #0x5
    2ca8:	9e c0 a8    	bset.b    0x9e, #0x6
    2caa:	81 e0 a9    	bclr.b    0x81, #0x7
    2cac:	f0 73 80    	mov.w     0xe7e, w0
    2cae:	80 00 eb    	clr.w     w1
    2cb0:	cc eb 07    	rcall     0x44a <___floatunsisf> <.libm>
    2cb2:	cd eb 07    	rcall     0x44e <___extendsfdf2> <.libm>
    2cb4:	74 8a 2e    	mov.w     #0xe8a7, w4
    2cb6:	85 e4 22    	mov.w     #0x2e48, w5
    2cb8:	f6 1f 22    	mov.w     #0x21ff, w6
    2cba:	97 00 24    	mov.w     #0x4009, w7
    2cbc:	95 ea 07    	rcall     0x1e8 <___muldf3> <.libm>
    2cbe:	60 22 b8    	mul.uu    w4, #0x0, w4
    2cc0:	06 00 27    	mov.w     #0x7000, w6
    2cc2:	77 0d 24    	mov.w     #0x40d7, w7
    2cc4:	e3 eb 07    	rcall     0x48c <___divdf3> <.libm>
    2cc6:	3c ec 07    	rcall     0x540 <_sin> <_sinl> <.libm>
    2cc8:	00 02 be    	mov.d     w0, w4
    2cca:	02 03 be    	mov.d     w2, w6
    2ccc:	07 eb 07    	rcall     0x2dc <___adddf3> <.libm>
    2cce:	10 40 88    	mov.w     w0, 0x802
    2cd0:	21 40 88    	mov.w     w1, 0x804
    2cd2:	32 40 88    	mov.w     w2, 0x806
    2cd4:	43 40 88    	mov.w     w3, 0x808
    2cd6:	90 74 80    	mov.w     0xe92, w0
    2cd8:	80 00 eb    	clr.w     w1
    2cda:	b7 eb 07    	rcall     0x44a <___floatunsisf> <.libm>
    2cdc:	b8 eb 07    	rcall     0x44e <___extendsfdf2> <.libm>
    2cde:	00 02 be    	mov.d     w0, w4
    2ce0:	02 03 be    	mov.d     w2, w6
    2ce2:	60 00 b8    	mul.uu    w0, #0x0, w0
    2ce4:	02 00 20    	mov.w     #0x0, w2
    2ce6:	03 ff 23    	mov.w     #0x3ff0, w3
    2ce8:	d1 eb 07    	rcall     0x48c <___divdf3> <.libm>
    2cea:	90 41 88    	mov.w     w0, 0x832
    2cec:	a1 41 88    	mov.w     w1, 0x834
    2cee:	b2 41 88    	mov.w     w2, 0x836
    2cf0:	c3 41 88    	mov.w     w3, 0x838
    2cf2:	10 40 80    	mov.w     0x802, w0
    2cf4:	21 40 80    	mov.w     0x804, w1
    2cf6:	32 40 80    	mov.w     0x806, w2
    2cf8:	43 40 80    	mov.w     0x808, w3
    2cfa:	94 41 80    	mov.w     0x832, w4
    2cfc:	a5 41 80    	mov.w     0x834, w5
    2cfe:	b6 41 80    	mov.w     0x836, w6
    2d00:	c7 41 80    	mov.w     0x838, w7
    2d02:	72 ea 07    	rcall     0x1e8 <___muldf3> <.libm>
