
K:\dspTerm2\interpolated trem\SF_FreqGenLUT_22Mhz.cof:     file format coff-pic30

Disassembly of section .ivt._ADCInterrupt:

0000002a <.ivt._ADCInterrupt>:
  2a:	c4 01 00    	nop       
Disassembly of section .ivt._AddressError:

00000008 <.ivt._AddressError>:
   8:	c4 01 00    	nop       
Disassembly of section .aivt._AltADCInterrupt:

000000aa <.aivt._AltADCInterrupt>:
  aa:	c4 01 00    	nop       
Disassembly of section .aivt._AltAddressError:

00000088 <.aivt._AltAddressError>:
  88:	c4 01 00    	nop       
Disassembly of section .aivt._AltC1Interrupt:

000000ca <.aivt._AltC1Interrupt>:
  ca:	c4 01 00    	nop       
Disassembly of section .aivt._AltC2Interrupt:

000000e0 <.aivt._AltC2Interrupt>:
  e0:	c4 01 00    	nop       
Disassembly of section .aivt._AltCNInterrupt:

000000b2 <.aivt._AltCNInterrupt>:
  b2:	c4 01 00    	nop       
Disassembly of section .aivt._AltDCIInterrupt:

000000e6 <.aivt._AltDCIInterrupt>:
  e6:	c4 01 00    	nop       
Disassembly of section .aivt._AltFLTAInterrupt:

000000ea <.aivt._AltFLTAInterrupt>:
  ea:	c4 01 00    	nop       
Disassembly of section .aivt._AltFLTBInterrupt:

000000ec <.aivt._AltFLTBInterrupt>:
  ec:	c4 01 00    	nop       
Disassembly of section .aivt._AltIC1Interrupt:

00000096 <.aivt._AltIC1Interrupt>:
  96:	c4 01 00    	nop       
Disassembly of section .aivt._AltIC2Interrupt:

0000009c <.aivt._AltIC2Interrupt>:
  9c:	c4 01 00    	nop       
Disassembly of section .aivt._AltIC3Interrupt:

000000cc <.aivt._AltIC3Interrupt>:
  cc:	c4 01 00    	nop       
Disassembly of section .aivt._AltIC4Interrupt:

000000ce <.aivt._AltIC4Interrupt>:
  ce:	c4 01 00    	nop       
Disassembly of section .aivt._AltIC5Interrupt:

000000d0 <.aivt._AltIC5Interrupt>:
  d0:	c4 01 00    	nop       
Disassembly of section .aivt._AltIC6Interrupt:

000000d2 <.aivt._AltIC6Interrupt>:
  d2:	c4 01 00    	nop       
Disassembly of section .aivt._AltIC7Interrupt:

000000b6 <.aivt._AltIC7Interrupt>:
  b6:	c4 01 00    	nop       
Disassembly of section .aivt._AltIC8Interrupt:

000000b8 <.aivt._AltIC8Interrupt>:
  b8:	c4 01 00    	nop       
Disassembly of section .aivt._AltINT0Interrupt:

00000094 <.aivt._AltINT0Interrupt>:
  94:	c4 01 00    	nop       
Disassembly of section .aivt._AltINT1Interrupt:

000000b4 <.aivt._AltINT1Interrupt>:
  b4:	c4 01 00    	nop       
Disassembly of section .aivt._AltINT2Interrupt:

000000c2 <.aivt._AltINT2Interrupt>:
  c2:	c4 01 00    	nop       
Disassembly of section .aivt._AltINT3Interrupt:

000000dc <.aivt._AltINT3Interrupt>:
  dc:	c4 01 00    	nop       
Disassembly of section .aivt._AltINT4Interrupt:

000000de <.aivt._AltINT4Interrupt>:
  de:	c4 01 00    	nop       
Disassembly of section .aivt._AltLVDInterrupt:

000000e8 <.aivt._AltLVDInterrupt>:
  e8:	c4 01 00    	nop       
Disassembly of section .aivt._AltMI2CInterrupt:

000000b0 <.aivt._AltMI2CInterrupt>:
  b0:	c4 01 00    	nop       
Disassembly of section .aivt._AltMathError:

0000008c <.aivt._AltMathError>:
  8c:	c4 01 00    	nop       
Disassembly of section .aivt._AltNVMInterrupt:

000000ac <.aivt._AltNVMInterrupt>:
  ac:	c4 01 00    	nop       
Disassembly of section .aivt._AltOC1Interrupt:

00000098 <.aivt._AltOC1Interrupt>:
  98:	c4 01 00    	nop       
Disassembly of section .aivt._AltOC2Interrupt:

0000009e <.aivt._AltOC2Interrupt>:
  9e:	c4 01 00    	nop       
Disassembly of section .aivt._AltOC3Interrupt:

000000ba <.aivt._AltOC3Interrupt>:
  ba:	c4 01 00    	nop       
Disassembly of section .aivt._AltOC4Interrupt:

000000bc <.aivt._AltOC4Interrupt>:
  bc:	c4 01 00    	nop       
Disassembly of section .aivt._AltOC5Interrupt:

000000d4 <.aivt._AltOC5Interrupt>:
  d4:	c4 01 00    	nop       
Disassembly of section .aivt._AltOC6Interrupt:

000000d6 <.aivt._AltOC6Interrupt>:
  d6:	c4 01 00    	nop       
Disassembly of section .aivt._AltOC7Interrupt:

000000d8 <.aivt._AltOC7Interrupt>:
  d8:	c4 01 00    	nop       
Disassembly of section .aivt._AltOC8Interrupt:

000000da <.aivt._AltOC8Interrupt>:
  da:	c4 01 00    	nop       
Disassembly of section .aivt._AltOscillatorFail:

00000086 <.aivt._AltOscillatorFail>:
  86:	c4 01 00    	nop       
Disassembly of section .aivt._AltPWMInterrupt:

000000e2 <.aivt._AltPWMInterrupt>:
  e2:	c4 01 00    	nop       
Disassembly of section .aivt._AltQEIInterrupt:

000000e4 <.aivt._AltQEIInterrupt>:
  e4:	c4 01 00    	nop       
Disassembly of section .aivt._AltReservedTrap0:

00000084 <.aivt._AltReservedTrap0>:
  84:	c4 01 00    	nop       
Disassembly of section .aivt._AltReservedTrap5:

0000008e <.aivt._AltReservedTrap5>:
  8e:	c4 01 00    	nop       
Disassembly of section .aivt._AltReservedTrap6:

00000090 <.aivt._AltReservedTrap6>:
  90:	c4 01 00    	nop       
Disassembly of section .aivt._AltReservedTrap7:

00000092 <.aivt._AltReservedTrap7>:
  92:	c4 01 00    	nop       
Disassembly of section .aivt._AltSI2CInterrupt:

000000ae <.aivt._AltSI2CInterrupt>:
  ae:	c4 01 00    	nop       
Disassembly of section .aivt._AltSPI1Interrupt:

000000a4 <.aivt._AltSPI1Interrupt>:
  a4:	c4 01 00    	nop       
Disassembly of section .aivt._AltSPI2Interrupt:

000000c8 <.aivt._AltSPI2Interrupt>:
  c8:	c4 01 00    	nop       
Disassembly of section .aivt._AltStackError:

0000008a <.aivt._AltStackError>:
  8a:	c4 01 00    	nop       
Disassembly of section .aivt._AltT1Interrupt:

0000009a <.aivt._AltT1Interrupt>:
  9a:	c4 01 00    	nop       
Disassembly of section .aivt._AltT2Interrupt:

000000a0 <.aivt._AltT2Interrupt>:
  a0:	c4 01 00    	nop       
Disassembly of section .aivt._AltT3Interrupt:

000000a2 <.aivt._AltT3Interrupt>:
  a2:	c4 01 00    	nop       
Disassembly of section .aivt._AltT4Interrupt:

000000be <.aivt._AltT4Interrupt>:
  be:	c4 01 00    	nop       
Disassembly of section .aivt._AltT5Interrupt:

000000c0 <.aivt._AltT5Interrupt>:
  c0:	c4 01 00    	nop       
Disassembly of section .aivt._AltU1RXInterrupt:

000000a6 <.aivt._AltU1RXInterrupt>:
  a6:	c4 01 00    	nop       
Disassembly of section .aivt._AltU1TXInterrupt:

000000a8 <.aivt._AltU1TXInterrupt>:
  a8:	c4 01 00    	nop       
Disassembly of section .aivt._AltU2RXInterrupt:

000000c4 <.aivt._AltU2RXInterrupt>:
  c4:	c4 01 00    	nop       
Disassembly of section .aivt._AltU2TXInterrupt:

000000c6 <.aivt._AltU2TXInterrupt>:
  c6:	c4 01 00    	nop       
Disassembly of section .ivt._C1Interrupt:

0000004a <.ivt._C1Interrupt>:
  4a:	c4 01 00    	nop       
Disassembly of section .ivt._C2Interrupt:

00000060 <.ivt._C2Interrupt>:
  60:	c4 01 00    	nop       
Disassembly of section .ivt._CNInterrupt:

00000032 <.ivt._CNInterrupt>:
  32:	c4 01 00    	nop       
Disassembly of section .ivt._DCIInterrupt:

00000066 <.ivt._DCIInterrupt>:
  66:	c4 01 00    	nop       
Disassembly of section .ivt._FLTAInterrupt:

0000006a <.ivt._FLTAInterrupt>:
  6a:	c4 01 00    	nop       
Disassembly of section .ivt._FLTBInterrupt:

0000006c <.ivt._FLTBInterrupt>:
  6c:	c4 01 00    	nop       
Disassembly of section .ivt._IC1Interrupt:

00000016 <.ivt._IC1Interrupt>:
  16:	c4 01 00    	nop       
Disassembly of section .ivt._IC2Interrupt:

0000001c <.ivt._IC2Interrupt>:
  1c:	c4 01 00    	nop       
Disassembly of section .ivt._IC3Interrupt:

0000004c <.ivt._IC3Interrupt>:
  4c:	c4 01 00    	nop       
Disassembly of section .ivt._IC4Interrupt:

0000004e <.ivt._IC4Interrupt>:
  4e:	c4 01 00    	nop       
Disassembly of section .ivt._IC5Interrupt:

00000050 <.ivt._IC5Interrupt>:
  50:	c4 01 00    	nop       
Disassembly of section .ivt._IC6Interrupt:

00000052 <.ivt._IC6Interrupt>:
  52:	c4 01 00    	nop       
Disassembly of section .ivt._IC7Interrupt:

00000036 <.ivt._IC7Interrupt>:
  36:	c4 01 00    	nop       
Disassembly of section .ivt._IC8Interrupt:

00000038 <.ivt._IC8Interrupt>:
  38:	c4 01 00    	nop       
Disassembly of section .ivt._INT0Interrupt:

00000014 <.ivt._INT0Interrupt>:
  14:	c4 01 00    	nop       
Disassembly of section .ivt._INT1Interrupt:

00000034 <.ivt._INT1Interrupt>:
  34:	c4 01 00    	nop       
Disassembly of section .ivt._INT2Interrupt:

00000042 <.ivt._INT2Interrupt>:
  42:	c4 01 00    	nop       
Disassembly of section .ivt._INT3Interrupt:

0000005c <.ivt._INT3Interrupt>:
  5c:	c4 01 00    	nop       
Disassembly of section .ivt._INT4Interrupt:

0000005e <.ivt._INT4Interrupt>:
  5e:	c4 01 00    	nop       
Disassembly of section .ivt._LVDInterrupt:

00000068 <.ivt._LVDInterrupt>:
  68:	c4 01 00    	nop       
Disassembly of section .ivt._MI2CInterrupt:

00000030 <.ivt._MI2CInterrupt>:
  30:	c4 01 00    	nop       
Disassembly of section .ivt._MathError:

0000000c <.ivt._MathError>:
   c:	c4 01 00    	nop       
Disassembly of section .ivt._NVMInterrupt:

0000002c <.ivt._NVMInterrupt>:
  2c:	c4 01 00    	nop       
Disassembly of section .ivt._OC1Interrupt:

00000018 <.ivt._OC1Interrupt>:
  18:	c4 01 00    	nop       
Disassembly of section .ivt._OC2Interrupt:

0000001e <.ivt._OC2Interrupt>:
  1e:	c4 01 00    	nop       
Disassembly of section .ivt._OC3Interrupt:

0000003a <.ivt._OC3Interrupt>:
  3a:	c4 01 00    	nop       
Disassembly of section .ivt._OC4Interrupt:

0000003c <.ivt._OC4Interrupt>:
  3c:	c4 01 00    	nop       
Disassembly of section .ivt._OC5Interrupt:

00000054 <.ivt._OC5Interrupt>:
  54:	c4 01 00    	nop       
Disassembly of section .ivt._OC6Interrupt:

00000056 <.ivt._OC6Interrupt>:
  56:	c4 01 00    	nop       
Disassembly of section .ivt._OC7Interrupt:

00000058 <.ivt._OC7Interrupt>:
  58:	c4 01 00    	nop       
Disassembly of section .ivt._OC8Interrupt:

0000005a <.ivt._OC8Interrupt>:
  5a:	c4 01 00    	nop       
Disassembly of section .ivt._OscillatorFail:

00000006 <.ivt._OscillatorFail>:
   6:	c4 01 00    	nop       
Disassembly of section .ivt._PWMInterrupt:

00000062 <.ivt._PWMInterrupt>:
  62:	c4 01 00    	nop       
Disassembly of section .ivt._QEIInterrupt:

00000064 <.ivt._QEIInterrupt>:
  64:	c4 01 00    	nop       
Disassembly of section .ivt._ReservedTrap0:

00000004 <.ivt._ReservedTrap0>:
   4:	c4 01 00    	nop       
Disassembly of section .ivt._ReservedTrap5:

0000000e <.ivt._ReservedTrap5>:
   e:	c4 01 00    	nop       
Disassembly of section .ivt._ReservedTrap6:

00000010 <.ivt._ReservedTrap6>:
  10:	c4 01 00    	nop       
Disassembly of section .ivt._ReservedTrap7:

00000012 <.ivt._ReservedTrap7>:
  12:	c4 01 00    	nop       
Disassembly of section .ivt._SI2CInterrupt:

0000002e <.ivt._SI2CInterrupt>:
  2e:	c4 01 00    	nop       
Disassembly of section .ivt._SPI1Interrupt:

00000024 <.ivt._SPI1Interrupt>:
  24:	c4 01 00    	nop       
Disassembly of section .ivt._SPI2Interrupt:

00000048 <.ivt._SPI2Interrupt>:
  48:	c4 01 00    	nop       
Disassembly of section .ivt._StackError:

0000000a <.ivt._StackError>:
   a:	c4 01 00    	nop       
Disassembly of section .ivt._T4Interrupt:

0000003e <.ivt._T4Interrupt>:
  3e:	c4 01 00    	nop       
Disassembly of section .ivt._T5Interrupt:

00000040 <.ivt._T5Interrupt>:
  40:	c4 01 00    	nop       
Disassembly of section .ivt._U1RXInterrupt:

00000026 <.ivt._U1RXInterrupt>:
  26:	c4 01 00    	nop       
Disassembly of section .ivt._U1TXInterrupt:

00000028 <.ivt._U1TXInterrupt>:
  28:	c4 01 00    	nop       
Disassembly of section .ivt._U2RXInterrupt:

00000044 <.ivt._U2RXInterrupt>:
  44:	c4 01 00    	nop       
Disassembly of section .ivt._U2TXInterrupt:

00000046 <.ivt._U2TXInterrupt>:
  46:	c4 01 00    	nop       
Disassembly of section .reset:

00000000 <.reset>:
   0:	00 01 04    	goto      0x100 <__reset>
   2:	00 00 00 
Disassembly of section .text:

00000100 <__reset>:
 100:	af 85 20    	mov.w     #0x85a, w15
 102:	0e ff 20    	mov.w     #0xff0, w14
 104:	0e 01 88    	mov.w     w14, 0x20
 106:	00 00 00    	nop       
 108:	00 00 20    	mov.w     #0x0, w0
 10a:	00 00 e0    	cp0.w     w0
 10c:	02 00 32    	bra       Z, 0x112 <CORCON_RESET>
 10e:	00 01 20    	mov.w     #0x10, w0
 110:	20 02 88    	mov.w     w0, 0x44

00000112 <CORCON_RESET>:
 112:	0c 00 07    	rcall     0x12c <__psv_init>
 114:	20 70 21    	mov.w     #0x1702, w0
 116:	01 00 20    	mov.w     #0x0, w1
 118:	1f 00 07    	rcall     0x158 <__data_init> <__data_init_standard> <.init>
 11a:	00 00 20    	mov.w     #0x0, w0
 11c:	00 00 e0    	cp0.w     w0
 11e:	02 00 32    	bra       Z, 0x124 <L11>
 120:	00 00 02    	call      0x0 <__reset-0x100>
 122:	00 00 00 

00000124 <L11>:
 124:	2a 16 02    	call      0x162a <_main>
 126:	00 00 00 
 128:	00 40 da    	.pword 0xda4000
 12a:	00 00 fe    	reset     

0000012c <__psv_init>:
 12c:	44 40 a9    	bclr.b    0x44, #0x2
 12e:	c0 0d 20    	mov.w     #0xdc, w0
 130:	00 00 e0    	cp0.w     w0
 132:	03 00 32    	bra       Z, 0x13a <L12>
 134:	00 00 20    	mov.w     #0x0, w0
 136:	a0 01 88    	mov.w     w0, 0x34
 138:	44 40 a8    	bset.b    0x44, #0x2

0000013a <L12>:
 13a:	00 00 06    	return    

0000013c <___delay32>:
 13c:	f0 3f b1    	sub.w     #0x3ff, w0
 13e:	01 80 b1    	subb.w    #0x0, w1
 140:	06 00 35    	bra       LT, 0x14e <L21>

00000142 <L41>:
 142:	ee 03 09    	repeat    #0x3ee
 144:	00 00 00    	nop       
 146:	40 3f b1    	sub.w     #0x3f4, w0
 148:	01 80 b1    	subb.w    #0x0, w1
 14a:	fb ff 3d    	bra       GE, 0x142 <L41>
 14c:	10 00 b0    	add.w     #0x1, w0

0000014e <L21>:
 14e:	20 3f b0    	add.w     #0x3f2, w0
 150:	02 00 35    	bra       LT, 0x156 <L31>
 152:	00 80 09    	repeat    w0
 154:	00 00 00    	nop       

00000156 <L31>:
 156:	00 00 06    	return    

00000158 <__data_init>:
 158:	91 01 88    	mov.w     w1, 0x32
 15a:	80 00 78    	mov.w     w0, w1
 15c:	00 00 eb    	clr.w     w0
 15e:	15 00 37    	bra       0x18a <L41>

00000160 <L11>:
 160:	e2 80 40    	add.w     w1, #0x2, w1
 162:	32 a0 b4    	addc.w    0x32
 164:	91 01 ba    	tblrdl.w  [w1], w3
 166:	e2 80 40    	add.w     w1, #0x2, w1
 168:	32 a0 b4    	addc.w    0x32
 16a:	91 02 ba    	tblrdl.w  [w1], w5
 16c:	e2 80 40    	add.w     w1, #0x2, w1
 16e:	32 a0 b4    	addc.w    0x32
 170:	00 02 eb    	clr.w     w4
 172:	47 2b de    	lsr.w     w5, #0x7, w6
 174:	f5 07 b2    	and.w     #0x7f, w5
 176:	60 2c e1    	cp.b      w5, #0x0
 178:	04 00 3a    	bra       NZ, 0x182 <L21>

0000017a <L91>:
 17a:	00 59 eb    	clr.b     [w2++]
 17c:	83 01 e9    	dec.w     w3, w3
 17e:	fd ff 3e    	bra       GTU, 0x17a <L91>
 180:	04 00 37    	bra       0x18a <L41>

00000182 <L21>:
 182:	61 28 e1    	cp.w      w5, #0x1
 184:	01 00 32    	bra       Z, 0x188 <L31>
 186:	00 82 eb    	setm.w    w4

00000188 <L31>:
 188:	0b 00 07    	rcall     0x1a0 <L13> <__memcpypd3_std>

0000018a <L41>:
 18a:	11 c3 ba    	tblrdh.b  [w1], w6
 18c:	11 01 ba    	tblrdl.w  [w1], w2
 18e:	06 04 e0    	cp0.b     w6
 190:	03 00 3a    	bra       NZ, 0x198 <L12>
 192:	02 00 e0    	cp0.w     w2
 194:	e5 ff 3a    	bra       NZ, 0x160 <L11>
 196:	00 00 06    	return    

00000198 <L12>:
 198:	f6 07 b2    	and.w     #0x7f, w6
 19a:	96 01 88    	mov.w     w6, 0x32
 19c:	82 00 78    	mov.w     w2, w1
 19e:	f5 ff 37    	bra       0x18a <L41>

000001a0 <L13>:
 1a0:	31 59 ba    	tblrdl.b  [w1++], [w2++]
 1a2:	83 01 e9    	dec.w     w3, w3
 1a4:	0c 00 32    	bra       Z, 0x1be <L22>
 1a6:	21 59 ba    	tblrdl.b  [w1--], [w2++]
 1a8:	83 01 e9    	dec.w     w3, w3
 1aa:	08 00 32    	bra       Z, 0x1bc <L42>
 1ac:	04 00 e0    	cp0.w     w4
 1ae:	03 00 3a    	bra       NZ, 0x1b6 <L14>

000001b0 <L32>:
 1b0:	e2 80 40    	add.w     w1, #0x2, w1
 1b2:	32 a0 b4    	addc.w    0x32
 1b4:	f5 ff 37    	bra       0x1a0 <L13> <__memcpypd3_std>

000001b6 <L14>:
 1b6:	11 d9 ba    	tblrdh.b  [w1], [w2++]
 1b8:	83 01 e9    	dec.w     w3, w3
 1ba:	fa ff 3a    	bra       NZ, 0x1b0 <L32>

000001bc <L42>:
 1bc:	81 00 e8    	inc.w     w1, w1

000001be <L22>:
 1be:	e1 80 40    	add.w     w1, #0x1, w1
 1c0:	32 a0 b4    	addc.w    0x32
 1c2:	00 00 06    	return    

000001c4 <__DefaultInterrupt>:
 1c4:	00 40 da    	.pword 0xda4000
 1c6:	00 00 fe    	reset     

000001c8 <___udivsi3>:
 1c8:	60 22 b8    	mul.uu    w4, #0x0, w4
 1ca:	06 02 20    	mov.w     #0x20, w6

000001cc <nextbit>:
 1cc:	00 00 d0    	sl.w      w0, w0
 1ce:	81 80 d2    	rlc.w     w1, w1
 1d0:	04 82 d2    	rlc.w     w4, w4
 1d2:	85 82 d2    	rlc.w     w5, w5
 1d4:	00 00 a0    	bset.w    w0, #0x0
 1d6:	02 02 52    	sub.w     w4, w2, w4
 1d8:	83 82 5a    	subb.w    w5, w3, w5
 1da:	03 00 31    	bra       C, 0x1e2 <iterate>
 1dc:	02 02 42    	add.w     w4, w2, w4
 1de:	83 82 4a    	addc.w    w5, w3, w5
 1e0:	00 00 a1    	bclr.w    w0, #0x0

000001e2 <iterate>:
 1e2:	06 03 e9    	dec.w     w6, w6
 1e4:	f3 ff 3a    	bra       NZ, 0x1cc <nextbit>
 1e6:	00 00 06    	return    

000001e8 <___muldf3>:
 1e8:	28 00 fa    	lnk       #0x28
 1ea:	88 9f be    	mov.d     w8, [w15++]
 1ec:	8a 9f be    	mov.d     w10, [w15++]
 1ee:	8c 9f be    	mov.d     w12, [w15++]
 1f0:	03 86 6b    	xor.w     w7, w3, w12
 1f2:	4c 01 07    	rcall     0x48c <__dunpack2> <.libm>
 1f4:	00 28 a3    	btst.z    w0, #0x2
 1f6:	64 00 3a    	bra       NZ, 0x2c0 <aisinfinite>
 1f8:	01 28 a3    	btst.z    w1, #0x2
 1fa:	67 00 3a    	bra       NZ, 0x2ca <bisinfinite>
 1fc:	00 08 a3    	btst.z    w0, #0x0
 1fe:	62 00 3a    	bra       NZ, 0x2c4 <returna> <returnab>
 200:	01 08 a3    	btst.z    w1, #0x0
 202:	65 00 3a    	bra       NZ, 0x2ce <returnb>
 204:	1e 00 90    	mov.w     [w14+2], w0
 206:	be 08 90    	mov.w     [w14+22], w1
 208:	81 06 40    	add.w     w0, w1, w13
 20a:	ed 3f b1    	sub.w     #0x3fe, w13
 20c:	f4 80 57    	sub.w     w15, #0x14, w1
 20e:	ee 01 90    	mov.w     [w14+12], w3
 210:	11 1a b8    	mul.uu    w3, [w1], w4
 212:	8e 09 90    	mov.w     [w14+16], w3
 214:	31 1b b8    	mul.uu    w3, [w1++], w6
 216:	9e 09 90    	mov.w     [w14+18], w3
 218:	31 1c b8    	mul.uu    w3, [w1++], w8
 21a:	51 1d b8    	mul.uu    w3, [++w1], w10
 21c:	f4 85 57    	sub.w     w15, #0x14, w11
 21e:	46 00 07    	rcall     0x2ac <muladd7>
 220:	fe 01 90    	mov.w     [w14+14], w3
 222:	3a 00 07    	rcall     0x298 <muladd5>
 224:	8b 85 e8    	inc2.w    w11, w11
 226:	3e 00 07    	rcall     0x2a4 <muladd6>
 228:	8e 09 90    	mov.w     [w14+16], w3
 22a:	40 00 07    	rcall     0x2ac <muladd7>
 22c:	ee 01 90    	mov.w     [w14+12], w3
 22e:	34 00 07    	rcall     0x298 <muladd5>
 230:	8b 85 e8    	inc2.w    w11, w11
 232:	38 00 07    	rcall     0x2a4 <muladd6>
 234:	8e 09 90    	mov.w     [w14+16], w3
 236:	40 00 07    	rcall     0x2b8 <muladd8>
 238:	9e 09 90    	mov.w     [w14+18], w3
 23a:	1b 18 b8    	mul.uu    w3, [w11], w0
 23c:	89 04 40    	add.w     w0, w9, w9
 23e:	0a 85 48    	addc.w    w1, w10, w10
 240:	fe 01 90    	mov.w     [w14+14], w3
 242:	34 00 07    	rcall     0x2ac <muladd7>
 244:	8b 85 e8    	inc2.w    w11, w11
 246:	38 00 07    	rcall     0x2b8 <muladd8>
 248:	ee 01 90    	mov.w     [w14+12], w3
 24a:	30 00 07    	rcall     0x2ac <muladd7>
 24c:	8e 09 90    	mov.w     [w14+16], w3
 24e:	1b 18 b8    	mul.uu    w3, [w11], w0
 250:	89 04 40    	add.w     w0, w9, w9
 252:	0a 85 48    	addc.w    w1, w10, w10
 254:	0a 98 a3    	btst.z    w10, #0x9
 256:	08 00 3a    	bra       NZ, 0x268 <formsticky>
 258:	04 02 42    	add.w     w4, w4, w4
 25a:	85 82 4a    	addc.w    w5, w5, w5
 25c:	06 03 4b    	addc.w    w6, w6, w6
 25e:	87 83 4b    	addc.w    w7, w7, w7
 260:	08 04 4c    	addc.w    w8, w8, w8
 262:	89 84 4c    	addc.w    w9, w9, w9
 264:	0a 05 4d    	addc.w    w10, w10, w10
 266:	8d 06 e9    	dec.w     w13, w13

00000268 <formsticky>:
 268:	84 82 72    	ior.w     w5, w4, w5
 26a:	85 02 73    	ior.w     w6, w5, w5
 26c:	4c 3a dd    	sl.w      w7, #0xc, w4
 26e:	85 02 72    	ior.w     w4, w5, w5
 270:	01 00 32    	bra       Z, 0x274 <formRandSig>
 272:	15 00 20    	mov.w     #0x1, w5

00000274 <formRandSig>:
 274:	44 3a de    	lsr.w     w7, #0x4, w4
 276:	14 00 b2    	and.w     #0x1, w4
 278:	45 38 de    	lsr.w     w7, #0x5, w0
 27a:	cb 45 dd    	sl.w      w8, #0xb, w11
 27c:	0b 00 70    	ior.w     w0, w11, w0
 27e:	c5 40 de    	lsr.w     w8, #0x5, w1
 280:	cb 4d dd    	sl.w      w9, #0xb, w11
 282:	8b 80 70    	ior.w     w1, w11, w1
 284:	45 49 de    	lsr.w     w9, #0x5, w2
 286:	cb 55 dd    	sl.w      w10, #0xb, w11
 288:	0b 01 71    	ior.w     w2, w11, w2
 28a:	c5 51 de    	lsr.w     w10, #0x5, w3
 28c:	0d 03 78    	mov.w     w13, w6
 28e:	17 01 07    	rcall     0x4be <__dpack> <.libm>

00000290 <signoff>:
 290:	03 f0 a1    	bclr.w    w3, #0xf
 292:	0c f0 a7    	btsc.w    w12, #0xf
 294:	03 f0 a0    	bset.w    w3, #0xf
 296:	0e 01 37    	bra       0x4b4 <__dunpack2exit>

00000298 <muladd5>:
 298:	1b 18 b8    	mul.uu    w3, [w11], w0
 29a:	85 02 40    	add.w     w0, w5, w5
 29c:	06 83 48    	addc.w    w1, w6, w6
 29e:	e0 83 4b    	addc.w    w7, #0x0, w7

000002a0 <carry8>:
 2a0:	60 04 4c    	addc.w    w8, #0x0, w8
 2a2:	07 00 37    	bra       0x2b2 <carry9>

000002a4 <muladd6>:
 2a4:	1b 18 b8    	mul.uu    w3, [w11], w0
 2a6:	06 03 40    	add.w     w0, w6, w6
 2a8:	87 83 48    	addc.w    w1, w7, w7
 2aa:	fa ff 37    	bra       0x2a0 <carry8>

000002ac <muladd7>:
 2ac:	1b 18 b8    	mul.uu    w3, [w11], w0
 2ae:	87 03 40    	add.w     w0, w7, w7
 2b0:	08 84 48    	addc.w    w1, w8, w8

000002b2 <carry9>:
 2b2:	e0 84 4c    	addc.w    w9, #0x0, w9

000002b4 <carrya>:
 2b4:	60 05 4d    	addc.w    w10, #0x0, w10
 2b6:	00 00 06    	return    

000002b8 <muladd8>:
 2b8:	1b 18 b8    	mul.uu    w3, [w11], w0
 2ba:	08 04 40    	add.w     w0, w8, w8
 2bc:	89 84 48    	addc.w    w1, w9, w9
 2be:	fa ff 37    	bra       0x2b4 <carrya>

000002c0 <aisinfinite>:
 2c0:	01 08 a3    	btst.z    w1, #0x0
 2c2:	f5 00 3a    	bra       NZ, 0x4ae <__dreturnNaN>

000002c4 <returna>:
 2c4:	58 00 be    	mov.d     [++w8], w0
 2c6:	58 01 be    	mov.d     [++w8], w2
 2c8:	e3 ff 37    	bra       0x290 <signoff>

000002ca <bisinfinite>:
 2ca:	00 08 a3    	btst.z    w0, #0x0
 2cc:	f0 00 3a    	bra       NZ, 0x4ae <__dreturnNaN>

000002ce <returnb>:
 2ce:	09 04 78    	mov.w     w9, w8
 2d0:	f9 ff 37    	bra       0x2c4 <returna> <returnab>

000002d2 <___eqdf2>:
 2d2:	8f 1f d1    	lsr.w     w15, [w15++]
 2d4:	20 01 07    	rcall     0x516 <__dcompare> <.libm>
 2d6:	8f 87 e9    	dec2.w    w15, w15
 2d8:	00 00 e0    	cp0.w     w0
 2da:	00 00 06    	return    

000002dc <___adddf3>:
 2dc:	28 00 fa    	lnk       #0x28
 2de:	88 9f be    	mov.d     w8, [w15++]
 2e0:	8a 9f be    	mov.d     w10, [w15++]
 2e2:	8c 9f be    	mov.d     w12, [w15++]
 2e4:	07 06 78    	mov.w     w7, w12
 2e6:	87 86 69    	xor.w     w3, w7, w13
 2e8:	0c 00 3b    	bra       NN, 0x302 <gotsign>
 2ea:	03 04 78    	mov.w     w3, w8
 2ec:	87 04 78    	mov.w     w7, w9
 2ee:	08 f0 a1    	bclr.w    w8, #0xf
 2f0:	09 f0 a1    	bclr.w    w9, #0xf
 2f2:	84 0f 50    	sub.w     w0, w4, [w15]
 2f4:	85 8f 58    	subb.w    w1, w5, [w15]
 2f6:	86 0f 59    	subb.w    w2, w6, [w15]
 2f8:	89 0f 5c    	subb.w    w8, w9, [w15]
 2fa:	03 00 33    	bra       N, 0x302 <gotsign>
 2fc:	0c f0 a2    	btg.w     w12, #0xf
 2fe:	01 00 3a    	bra       NZ, 0x302 <gotsign>
 300:	0c f0 a1    	bclr.w    w12, #0xf

00000302 <gotsign>:
 302:	c4 00 07    	rcall     0x48c <__dunpack2> <.libm>
 304:	64 00 e1    	cp.w      w0, #0x4
 306:	5f 00 32    	bra       Z, 0x3c6 <aisinfinite>
 308:	78 01 47    	add.w     w14, #0x18, w2
 30a:	64 08 e1    	cp.w      w1, #0x4
 30c:	61 00 32    	bra       Z, 0x3d0 <returnab>
 30e:	6c 01 47    	add.w     w14, #0xc, w2
 310:	74 85 57    	sub.w     w15, #0x14, w10
 312:	32 00 be    	mov.d     [w2++], w0
 314:	12 01 be    	mov.d     [w2], w2
 316:	3a 04 be    	mov.d     [w10++], w8
 318:	1a 05 be    	mov.d     [w10], w10
 31a:	1e 03 90    	mov.w     [w14+2], w6
 31c:	be 0a 90    	mov.w     [w14+22], w5
 31e:	85 03 53    	sub.w     w6, w5, w7
 320:	06 00 3d    	bra       GE, 0x32e <expcanonical>
 322:	00 04 fd    	exch      w0, w8
 324:	81 04 fd    	exch      w1, w9
 326:	02 05 fd    	exch      w2, w10
 328:	83 05 fd    	exch      w3, w11
 32a:	87 03 ea    	neg.w     w7, w7
 32c:	05 03 78    	mov.w     w5, w6

0000032e <expcanonical>:
 32e:	0d f8 a3    	btst.z    w13, #0xf
 330:	04 00 32    	bra       Z, 0x33a <bcanonical>
 332:	60 04 14    	subr.w    w8, #0x0, w8
 334:	e0 84 1c    	subbr.w   w9, #0x0, w9
 336:	60 05 1d    	subbr.w   w10, #0x0, w10
 338:	e0 85 1d    	subbr.w   w11, #0x0, w11

0000033a <bcanonical>:
 33a:	60 22 b8    	mul.uu    w4, #0x0, w4
 33c:	7d 03 20    	mov.w     #0x37, w13
 33e:	0d 38 e1    	cp.w      w7, w13
 340:	80 06 eb    	clr.w     w13
 342:	0b 00 39    	bra       NC, 0x35a <aligniter>
 344:	44 33 dd    	sl.w      w6, #0x4, w6
 346:	f3 00 b2    	and.w     #0xf, w3
 348:	83 01 73    	ior.w     w6, w3, w3
 34a:	39 00 37    	bra       0x3be <signoff>

0000034c <align>:
 34c:	84 82 72    	ior.w     w5, w4, w5
 34e:	0d 02 78    	mov.w     w13, w4
 350:	e1 06 64    	and.w     w8, #0x1, w13
 352:	8b 85 d1    	asr.w     w11, w11
 354:	0a 85 d3    	rrc.w     w10, w10
 356:	89 84 d3    	rrc.w     w9, w9
 358:	08 84 d3    	rrc.w     w8, w8

0000035a <aligniter>:
 35a:	87 03 e9    	dec.w     w7, w7
 35c:	f7 ff 3b    	bra       NN, 0x34c <align>

0000035e <aligned>:
 35e:	08 00 40    	add.w     w0, w8, w0
 360:	89 80 48    	addc.w    w1, w9, w1
 362:	0a 01 49    	addc.w    w2, w10, w2
 364:	8b 81 49    	addc.w    w3, w11, w3
 366:	04 00 3b    	bra       NN, 0x370 <normalizesum>
 368:	60 00 10    	subr.w    w0, #0x0, w0
 36a:	e0 80 18    	subbr.w   w1, #0x0, w1
 36c:	60 01 19    	subbr.w   w2, #0x0, w2
 36e:	e0 81 19    	subbr.w   w3, #0x0, w3

00000370 <normalizesum>:
 370:	03 58 a3    	btst.z    w3, #0x5
 372:	09 00 32    	bra       Z, 0x386 <checknormal>
 374:	8d 82 72    	ior.w     w5, w13, w5
 376:	84 82 72    	ior.w     w5, w4, w5
 378:	61 02 60    	and.w     w0, #0x1, w4
 37a:	83 01 d1    	lsr.w     w3, w3
 37c:	02 81 d3    	rrc.w     w2, w2
 37e:	81 80 d3    	rrc.w     w1, w1
 380:	00 80 d3    	rrc.w     w0, w0
 382:	06 03 e8    	inc.w     w6, w6
 384:	1b 00 37    	bra       0x3bc <round>

00000386 <checknormal>:
 386:	03 48 a3    	btst.z    w3, #0x4
 388:	17 00 3a    	bra       NZ, 0x3b8 <discardguard>

0000038a <underflow>:
 38a:	06 00 e0    	cp0.w     w6
 38c:	17 00 34    	bra       LE, 0x3bc <round>
 38e:	06 03 e9    	dec.w     w6, w6
 390:	0d 00 a3    	btst.c    w13, #0x0
 392:	00 00 48    	addc.w    w0, w0, w0
 394:	81 80 48    	addc.w    w1, w1, w1
 396:	02 01 49    	addc.w    w2, w2, w2
 398:	83 81 49    	addc.w    w3, w3, w3
 39a:	03 48 a3    	btst.z    w3, #0x4
 39c:	0f 00 3a    	bra       NZ, 0x3bc <round>

0000039e <normalizeloop>:
 39e:	06 00 e0    	cp0.w     w6
 3a0:	09 00 34    	bra       LE, 0x3b4 <normalizeexit>
 3a2:	06 03 e9    	dec.w     w6, w6
 3a4:	00 00 40    	add.w     w0, w0, w0
 3a6:	81 80 48    	addc.w    w1, w1, w1
 3a8:	02 01 49    	addc.w    w2, w2, w2
 3aa:	83 81 49    	addc.w    w3, w3, w3
 3ac:	01 00 3a    	bra       NZ, 0x3b0 <normalizeexpok>
 3ae:	00 03 eb    	clr.w     w6

000003b0 <normalizeexpok>:
 3b0:	03 48 a3    	btst.z    w3, #0x4
 3b2:	f5 ff 32    	bra       Z, 0x39e <normalizeloop>

000003b4 <normalizeexit>:
 3b4:	60 22 b8    	mul.uu    w4, #0x0, w4
 3b6:	02 00 37    	bra       0x3bc <round>

000003b8 <discardguard>:
 3b8:	84 82 72    	ior.w     w5, w4, w5
 3ba:	61 82 66    	and.w     w13, #0x1, w4

000003bc <round>:
 3bc:	80 00 07    	rcall     0x4be <__dpack> <.libm>

000003be <signoff>:
 3be:	03 f0 a1    	bclr.w    w3, #0xf
 3c0:	0c f0 a7    	btsc.w    w12, #0xf
 3c2:	03 f0 a0    	bset.w    w3, #0xf
 3c4:	77 00 37    	bra       0x4b4 <__dunpack2exit>

000003c6 <aisinfinite>:
 3c6:	64 01 47    	add.w     w14, #0x4, w2
 3c8:	64 08 e1    	cp.w      w1, #0x4
 3ca:	02 00 3a    	bra       NZ, 0x3d0 <returnab>
 3cc:	0d f8 a3    	btst.z    w13, #0xf
 3ce:	6f 00 3a    	bra       NZ, 0x4ae <__dreturnNaN>

000003d0 <returnab>:
 3d0:	32 00 be    	mov.d     [w2++], w0
 3d2:	12 01 be    	mov.d     [w2], w2
 3d4:	6f 00 37    	bra       0x4b4 <__dunpack2exit>

000003d6 <_floor>:
 3d6:	00 02 eb    	clr.w     w4
 3d8:	c7 00 07    	rcall     0x568 <__dchop> <.libm>
 3da:	05 00 32    	bra       Z, 0x3e6 <exit>
 3dc:	07 ff 23    	mov.w     #0x3ff0, w7
 3de:	06 00 20    	mov.w     #0x0, w6
 3e0:	60 22 b8    	mul.uu    w4, #0x0, w4
 3e2:	03 f0 a7    	btsc.w    w3, #0xf
 3e4:	2d 00 07    	rcall     0x440 <___subdf3> <.libm>

000003e6 <exit>:
 3e6:	00 00 06    	return    

000003e8 <___fixdfsi>:
 3e8:	14 00 fa    	lnk       #0x14
 3ea:	88 9f be    	mov.d     w8, [w15++]
 3ec:	8a 9f be    	mov.d     w10, [w15++]
 3ee:	8c 9f be    	mov.d     w12, [w15++]
 3f0:	00 04 be    	mov.d     w0, w8
 3f2:	02 05 be    	mov.d     w2, w10
 3f4:	68 00 47    	add.w     w14, #0x8, w0
 3f6:	0a 90 be    	mov.d     w10, [w0--]
 3f8:	08 90 be    	mov.d     w8, [w0--]
 3fa:	fa 00 07    	rcall     0x5f0 <__dunpack> <.libm>
 3fc:	00 70 a7    	btsc.w    w0, #0x7
 3fe:	0b f0 a1    	bclr.w    w11, #0xf
 400:	30 43 20    	mov.w     #0x433, w0
 402:	9e 02 90    	mov.w     [w14+2], w5
 404:	80 82 52    	sub.w     w5, w0, w5
 406:	b0 fe 2f    	mov.w     #0xffeb, w0
 408:	00 28 e1    	cp.w      w5, w0
 40a:	11 00 3d    	bra       GE, 0x42e <overflow>
 40c:	b0 fc 2f    	mov.w     #0xffcb, w0
 40e:	00 28 e1    	cp.w      w5, w0
 410:	15 00 34    	bra       LE, 0x43c <underflow>
 412:	1e 09 90    	mov.w     [w14+18], w2
 414:	8e 08 90    	mov.w     [w14+16], w1
 416:	7e 00 90    	mov.w     [w14+14], w0
 418:	05 01 b0    	add.w     #0x10, w5

0000041a <shiftrightloop>:
 41a:	02 01 d1    	lsr.w     w2, w2
 41c:	81 80 d3    	rrc.w     w1, w1
 41e:	00 80 d3    	rrc.w     w0, w0
 420:	85 02 e8    	inc.w     w5, w5
 422:	fb ff 3a    	bra       NZ, 0x41a <shiftrightloop>

00000424 <setsign>:
 424:	0b 00 e0    	cp0.w     w11
 426:	46 00 3b    	bra       NN, 0x4b4 <__dunpack2exit>
 428:	60 00 10    	subr.w    w0, #0x0, w0
 42a:	e0 80 18    	subbr.w   w1, #0x0, w1
 42c:	43 00 37    	bra       0x4b4 <__dunpack2exit>

0000042e <overflow>:
 42e:	f0 ff 2f    	mov.w     #0xffff, w0
 430:	f1 ff 27    	mov.w     #0x7fff, w1
 432:	0b 00 e0    	cp0.w     w11
 434:	3f 00 3b    	bra       NN, 0x4b4 <__dunpack2exit>
 436:	01 00 28    	mov.w     #0x8000, w1
 438:	00 00 20    	mov.w     #0x0, w0
 43a:	3c 00 37    	bra       0x4b4 <__dunpack2exit>

0000043c <underflow>:
 43c:	60 00 b8    	mul.uu    w0, #0x0, w0
 43e:	3a 00 37    	bra       0x4b4 <__dunpack2exit>

00000440 <___subdf3>:
 440:	07 f0 a2    	btg.w     w7, #0xf
 442:	4c ff 37    	bra       0x2dc <___adddf3> <.libm>

00000444 <___floatsidf>:
 444:	4f 89 de    	asr.w     w1, #0xf, w2
 446:	82 01 78    	mov.w     w2, w3
 448:	fa 00 37    	bra       0x63e <___floatdidf> <.libm>

0000044a <___floatunsisf>:
 44a:	60 11 b8    	mul.uu    w2, #0x0, w2
 44c:	08 01 37    	bra       0x65e <___floatundisf> <.libm>

0000044e <___extendsfdf2>:
 44e:	81 03 78    	mov.w     w1, w7
 450:	35 01 07    	rcall     0x6bc <__funpack> <.libm>
 452:	00 01 be    	mov.d     w0, w2
 454:	60 00 b8    	mul.uu    w0, #0x0, w0
 456:	04 78 a3    	btst.z    w4, #0x7
 458:	13 00 3a    	bra       NZ, 0x480 <xIsNaN>
 45a:	62 20 e1    	cp.w      w4, #0x2
 45c:	15 00 3e    	bra       GTU, 0x488 <xIsInf>
 45e:	0d 00 39    	bra       NC, 0x47a <signoff>
 460:	83 01 d1    	lsr.w     w3, w3
 462:	02 81 d3    	rrc.w     w2, w2
 464:	81 80 d3    	rrc.w     w1, w1
 466:	83 01 d1    	lsr.w     w3, w3
 468:	02 81 d3    	rrc.w     w2, w2
 46a:	81 80 d3    	rrc.w     w1, w1
 46c:	83 01 d1    	lsr.w     w3, w3
 46e:	02 81 d3    	rrc.w     w2, w2
 470:	81 80 d3    	rrc.w     w1, w1
 472:	05 38 b0    	add.w     #0x380, w5
 474:	c4 2a dd    	sl.w      w5, #0x4, w5
 476:	f3 00 b2    	and.w     #0xf, w3
 478:	83 81 72    	ior.w     w5, w3, w3

0000047a <signoff>:
 47a:	07 f0 a7    	btsc.w    w7, #0xf
 47c:	03 f0 a0    	bset.w    w3, #0xf

0000047e <exit>:
 47e:	00 00 06    	return    

00000480 <xIsNaN>:
 480:	f3 ff 27    	mov.w     #0x7fff, w3
 482:	f2 ff 2f    	mov.w     #0xffff, w2
 484:	61 10 b9    	mul.su    w2, #0x1, w0
 486:	fb ff 37    	bra       0x47e <exit>

00000488 <xIsInf>:
 488:	03 ff 27    	mov.w     #0x7ff0, w3
 48a:	f7 ff 37    	bra       0x47a <signoff>

0000048c <__dunpack2>:
 48c:	68 04 47    	add.w     w14, #0x8, w8
 48e:	02 94 be    	mov.d     w2, [w8--]
 490:	00 94 be    	mov.d     w0, [w8--]
 492:	fc 04 47    	add.w     w14, #0x1c, w9
 494:	86 94 be    	mov.d     w6, [w9--]
 496:	84 94 be    	mov.d     w4, [w9--]
 498:	09 00 78    	mov.w     w9, w0
 49a:	aa 00 07    	rcall     0x5f0 <__dunpack> <.libm>
 49c:	08 00 78    	mov.w     w8, w0
 49e:	a8 00 07    	rcall     0x5f0 <__dunpack> <.libm>
 4a0:	99 00 78    	mov.w     [w9], w1
 4a2:	81 4f 70    	ior.b     w0, w1, [w15]
 4a4:	0b 00 3b    	bra       NN, 0x4bc <exit>

000004a6 <aorbIsNaN>:
 4a6:	08 00 be    	mov.d     w8, w0
 4a8:	1e 01 07    	rcall     0x6e6 <__dPropagateNaN> <.libm>
 4aa:	4f 00 b1    	sub.w     #0x4, w15
 4ac:	03 00 37    	bra       0x4b4 <__dunpack2exit>

000004ae <__dreturnNaN>:
 4ae:	f3 ff 27    	mov.w     #0x7fff, w3
 4b0:	f2 ff 2f    	mov.w     #0xffff, w2
 4b2:	61 10 b9    	mul.su    w2, #0x1, w0

000004b4 <__dunpack2exit>:
 4b4:	4f 06 be    	mov.d     [--w15], w12
 4b6:	4f 05 be    	mov.d     [--w15], w10
 4b8:	4f 04 be    	mov.d     [--w15], w8
 4ba:	00 80 fa    	ulnk      

000004bc <exit>:
 4bc:	00 00 06    	return    

000004be <__dpack>:
 4be:	18 00 20    	mov.w     #0x1, w8
 4c0:	57 00 20    	mov.w     #0x5, w7
 4c2:	08 04 53    	sub.w     w6, w8, w8
 4c4:	0d 00 3d    	bra       GE, 0x4e0 <notsubnormal>
 4c6:	06 00 20    	mov.w     #0x0, w6
 4c8:	97 fc 2f    	mov.w     #0xffc9, w7
 4ca:	07 40 e1    	cp.w      w8, w7
 4cc:	1e 00 34    	bra       LE, 0x50a <zerosig>

000004ce <subnormal>:
 4ce:	84 82 72    	ior.w     w5, w4, w5
 4d0:	61 02 60    	and.w     w0, #0x1, w4
 4d2:	83 01 d1    	lsr.w     w3, w3
 4d4:	02 81 d3    	rrc.w     w2, w2
 4d6:	81 80 d3    	rrc.w     w1, w1
 4d8:	00 80 d3    	rrc.w     w0, w0
 4da:	08 04 e8    	inc.w     w8, w8
 4dc:	f8 ff 3a    	bra       NZ, 0x4ce <subnormal>
 4de:	47 00 20    	mov.w     #0x4, w7

000004e0 <notsubnormal>:
 4e0:	61 04 60    	and.w     w0, #0x1, w8
 4e2:	05 04 74    	ior.w     w8, w5, w8
 4e4:	04 04 64    	and.w     w8, w4, w8
 4e6:	0d 00 32    	bra       Z, 0x502 <packupandgo>
 4e8:	61 00 40    	add.w     w0, #0x1, w0
 4ea:	e0 80 48    	addc.w    w1, #0x0, w1
 4ec:	60 01 49    	addc.w    w2, #0x0, w2
 4ee:	e0 81 49    	addc.w    w3, #0x0, w3
 4f0:	03 b8 a5    	btst.z    w3, w7
 4f2:	07 00 32    	bra       Z, 0x502 <packupandgo>
 4f4:	06 03 e8    	inc.w     w6, w6
 4f6:	65 38 e1    	cp.w      w7, #0x5
 4f8:	04 00 3a    	bra       NZ, 0x502 <packupandgo>
 4fa:	83 01 d1    	lsr.w     w3, w3
 4fc:	02 81 d3    	rrc.w     w2, w2
 4fe:	81 80 d3    	rrc.w     w1, w1
 500:	00 80 d3    	rrc.w     w0, w0

00000502 <packupandgo>:
 502:	f8 7f 20    	mov.w     #0x7ff, w8
 504:	08 30 e1    	cp.w      w6, w8
 506:	03 00 35    	bra       LT, 0x50e <nooverflow>
 508:	08 03 78    	mov.w     w8, w6

0000050a <zerosig>:
 50a:	60 00 b8    	mul.uu    w0, #0x0, w0
 50c:	60 11 b8    	mul.uu    w2, #0x0, w2

0000050e <nooverflow>:
 50e:	44 33 dd    	sl.w      w6, #0x4, w6
 510:	f3 00 b2    	and.w     #0xf, w3
 512:	83 01 73    	ior.w     w6, w3, w3
 514:	00 00 06    	return    

00000516 <__dcompare>:
 516:	88 9f be    	mov.d     w8, [w15++]
 518:	8a 9f be    	mov.d     w10, [w15++]
 51a:	8c 9f be    	mov.d     w12, [w15++]
 51c:	04 04 be    	mov.d     w4, w8
 51e:	06 05 be    	mov.d     w6, w10
 520:	80 9f be    	mov.d     w0, [w15++]
 522:	82 9f be    	mov.d     w2, [w15++]
 524:	ee 00 07    	rcall     0x702 <__dtype> <.libm>
 526:	04 06 78    	mov.w     w4, w12
 528:	08 00 be    	mov.d     w8, w0
 52a:	0a 01 be    	mov.d     w10, w2
 52c:	ea 00 07    	rcall     0x702 <__dtype> <.libm>
 52e:	84 06 78    	mov.w     w4, w13
 530:	4f 03 be    	mov.d     [--w15], w6
 532:	4f 02 be    	mov.d     [--w15], w4
 534:	8d 4f 76    	ior.b     w12, w13, [w15]
 536:	7f b0 97    	mov.w     [w15-18], w0
 538:	13 00 33    	bra       N, 0x560 <exit>
 53a:	f0 ff 2f    	mov.w     #0xffff, w0
 53c:	8b 8f 6b    	xor.w     w7, w11, [w15]
 53e:	06 00 3b    	bra       NN, 0x54c <comparemag>
 540:	0d 06 66    	and.w     w12, w13, w12
 542:	0c 00 a7    	btsc.w    w12, #0x0
 544:	0a 00 37    	bra       0x55a <returnEqual>
 546:	07 f0 a6    	btss.w    w7, #0xf
 548:	10 00 20    	mov.w     #0x1, w0
 54a:	0a 00 37    	bra       0x560 <exit>

0000054c <comparemag>:
 54c:	88 0f 52    	sub.w     w4, w8, [w15]
 54e:	89 8f 5a    	subb.w    w5, w9, [w15]
 550:	8a 0f 5b    	subb.w    w6, w10, [w15]
 552:	8b 8f 5b    	subb.w    w7, w11, [w15]
 554:	03 00 39    	bra       NC, 0x55c <adjust>
 556:	10 00 20    	mov.w     #0x1, w0
 558:	01 00 3e    	bra       GTU, 0x55c <adjust>

0000055a <returnEqual>:
 55a:	00 00 20    	mov.w     #0x0, w0

0000055c <adjust>:
 55c:	07 f0 a7    	btsc.w    w7, #0xf
 55e:	00 00 ea    	neg.w     w0, w0

00000560 <exit>:
 560:	4f 06 be    	mov.d     [--w15], w12
 562:	4f 05 be    	mov.d     [--w15], w10
 564:	4f 04 be    	mov.d     [--w15], w8
 566:	00 00 06    	return    

00000568 <__dchop>:
 568:	14 00 fa    	lnk       #0x14
 56a:	88 9f be    	mov.d     w8, [w15++]
 56c:	8a 9f be    	mov.d     w10, [w15++]
 56e:	8c 9f be    	mov.d     w12, [w15++]
 570:	04 06 78    	mov.w     w4, w12
 572:	e8 02 47    	add.w     w14, #0x8, w5
 574:	82 92 be    	mov.d     w2, [w5--]
 576:	80 92 be    	mov.d     w0, [w5--]
 578:	05 00 78    	mov.w     w5, w0
 57a:	3a 00 07    	rcall     0x5f0 <__dunpack> <.libm>
 57c:	62 00 e1    	cp.w      w0, #0x2
 57e:	33 00 3a    	bra       NZ, 0x5e6 <returnx>
 580:	60 00 b8    	mul.uu    w0, #0x0, w0
 582:	60 11 b8    	mul.uu    w2, #0x0, w2
 584:	1e 03 90    	mov.w     [w14+2], w6
 586:	0c 03 53    	sub.w     w6, w12, w6
 588:	f6 3f b1    	sub.w     #0x3ff, w6
 58a:	22 00 35    	bra       LT, 0x5d0 <signit>
 58c:	4b 03 20    	mov.w     #0x34, w11
 58e:	0b 30 e1    	cp.w      w6, w11
 590:	2a 00 3d    	bra       GE, 0x5e6 <returnx>
 592:	fb 01 20    	mov.w     #0x1f, w11
 594:	fa ff 2f    	mov.w     #0xffff, w10
 596:	61 54 b9    	mul.su    w10, #0x1, w8
 598:	6c 01 47    	add.w     w14, #0xc, w2

0000059a <shiftloop>:
 59a:	8b 05 d1    	lsr.w     w11, w11
 59c:	0a 85 d3    	rrc.w     w10, w10
 59e:	89 84 d3    	rrc.w     w9, w9
 5a0:	08 84 d3    	rrc.w     w8, w8
 5a2:	06 03 e9    	dec.w     w6, w6
 5a4:	fa ff 3b    	bra       NN, 0x59a <shiftloop>
 5a6:	32 00 be    	mov.d     [w2++], w0
 5a8:	12 01 be    	mov.d     [w2], w2
 5aa:	00 02 64    	and.w     w8, w0, w4
 5ac:	81 82 64    	and.w     w9, w1, w5
 5ae:	02 03 65    	and.w     w10, w2, w6
 5b0:	83 83 65    	and.w     w11, w3, w7
 5b2:	05 02 72    	ior.w     w4, w5, w4
 5b4:	06 02 72    	ior.w     w4, w6, w4
 5b6:	07 02 72    	ior.w     w4, w7, w4
 5b8:	16 00 32    	bra       Z, 0x5e6 <returnx>
 5ba:	08 84 ea    	com.w     w8, w8
 5bc:	89 84 ea    	com.w     w9, w9
 5be:	0a 85 ea    	com.w     w10, w10
 5c0:	8b 85 ea    	com.w     w11, w11
 5c2:	00 00 64    	and.w     w8, w0, w0
 5c4:	81 80 64    	and.w     w9, w1, w1
 5c6:	02 01 65    	and.w     w10, w2, w2
 5c8:	83 81 65    	and.w     w11, w3, w3
 5ca:	60 22 b8    	mul.uu    w4, #0x0, w4
 5cc:	1e 03 90    	mov.w     [w14+2], w6
 5ce:	77 ff 07    	rcall     0x4be <__dpack> <.libm>

000005d0 <signit>:
 5d0:	de 03 90    	mov.w     [w14+10], w7
 5d2:	07 f0 a7    	btsc.w    w7, #0xf
 5d4:	03 f0 a0    	bset.w    w3, #0xf
 5d6:	00 82 eb    	setm.w    w4

000005d8 <exit>:
 5d8:	04 00 e0    	cp0.w     w4
 5da:	8e 02 90    	mov.w     [w14+0], w5
 5dc:	4f 06 be    	mov.d     [--w15], w12
 5de:	4f 05 be    	mov.d     [--w15], w10
 5e0:	4f 04 be    	mov.d     [--w15], w8
 5e2:	00 80 fa    	ulnk      
 5e4:	00 00 06    	return    

000005e6 <returnx>:
 5e6:	64 01 47    	add.w     w14, #0x4, w2
 5e8:	04 00 20    	mov.w     #0x0, w4
 5ea:	32 00 be    	mov.d     [w2++], w0
 5ec:	12 01 be    	mov.d     [w2], w2
 5ee:	f4 ff 37    	bra       0x5d8 <exit>

000005f0 <__dunpack>:
 5f0:	80 00 78    	mov.w     w0, w1
 5f2:	50 02 be    	mov.d     [++w0], w4
 5f4:	50 03 be    	mov.d     [++w0], w6
 5f6:	44 39 de    	lsr.w     w7, #0x4, w2
 5f8:	f7 00 b2    	and.w     #0xf, w7
 5fa:	f3 7f 20    	mov.w     #0x7ff, w3
 5fc:	03 01 61    	and.w     w2, w3, w2
 5fe:	09 00 32    	bra       Z, 0x612 <zeroorsub>
 600:	02 18 e1    	cp.w      w3, w2
 602:	16 00 3a    	bra       NZ, 0x630 <finitereturn>
 604:	85 01 72    	ior.w     w4, w5, w3
 606:	83 01 73    	ior.w     w6, w3, w3
 608:	83 81 73    	ior.w     w7, w3, w3
 60a:	00 08 20    	mov.w     #0x80, w0
 60c:	15 00 3a    	bra       NZ, 0x638 <exit>
 60e:	40 00 20    	mov.w     #0x4, w0
 610:	13 00 37    	bra       0x638 <exit>

00000612 <zeroorsub>:
 612:	85 01 72    	ior.w     w4, w5, w3
 614:	83 01 73    	ior.w     w6, w3, w3
 616:	83 81 73    	ior.w     w7, w3, w3
 618:	05 00 3a    	bra       NZ, 0x624 <subnormal>
 61a:	04 a8 be    	mov.d     w4, [++w0]
 61c:	06 a8 be    	mov.d     w6, [++w0]
 61e:	10 00 20    	mov.w     #0x1, w0
 620:	0b 00 37    	bra       0x638 <exit>

00000622 <normalize>:
 622:	02 01 e9    	dec.w     w2, w2

00000624 <subnormal>:
 624:	04 02 42    	add.w     w4, w4, w4
 626:	85 82 4a    	addc.w    w5, w5, w5
 628:	06 03 4b    	addc.w    w6, w6, w6
 62a:	87 83 4b    	addc.w    w7, w7, w7
 62c:	07 48 a3    	btst.z    w7, #0x4
 62e:	f9 ff 32    	bra       Z, 0x622 <normalize>

00000630 <finitereturn>:
 630:	07 40 a0    	bset.w    w7, #0x4
 632:	04 a8 be    	mov.d     w4, [++w0]
 634:	06 a8 be    	mov.d     w6, [++w0]
 636:	20 00 20    	mov.w     #0x2, w0

00000638 <exit>:
 638:	80 00 98    	mov.w     w0, [w1+0]
 63a:	92 00 98    	mov.w     w2, [w1+2]
 63c:	00 00 06    	return    

0000063e <___floatdidf>:
 63e:	88 1f 78    	mov.w     w8, [w15++]
 640:	03 04 78    	mov.w     w3, w8
 642:	03 00 e0    	cp0.w     w3
 644:	07 00 3d    	bra       GE, 0x654 <notspecial>

00000646 <negative>:
 646:	60 00 10    	subr.w    w0, #0x0, w0
 648:	e0 80 18    	subbr.w   w1, #0x0, w1
 64a:	60 01 19    	subbr.w   w2, #0x0, w2
 64c:	e0 81 19    	subbr.w   w3, #0x0, w3
 64e:	02 00 3b    	bra       NN, 0x654 <notspecial>
 650:	01 f0 2d    	mov.w     #0xdf00, w1
 652:	03 00 37    	bra       0x65a <return0>

00000654 <notspecial>:
 654:	68 00 07    	rcall     0x726 <___floatundidf> <.libm>
 656:	08 f0 a7    	btsc.w    w8, #0xf
 658:	03 f0 a0    	bset.w    w3, #0xf

0000065a <return0>:
 65a:	4f 04 78    	mov.w     [--w15], w8
 65c:	00 00 06    	return    

0000065e <___floatundisf>:
 65e:	88 9f be    	mov.d     w8, [w15++]
 660:	8a 9f be    	mov.d     w10, [w15++]
 662:	00 82 70    	ior.w     w1, w0, w4
 664:	04 02 71    	ior.w     w2, w4, w4
 666:	04 82 71    	ior.w     w3, w4, w4
 668:	26 00 32    	bra       Z, 0x6b6 <return0>
 66a:	00 04 be    	mov.d     w0, w8
 66c:	02 00 be    	mov.d     w2, w0
 66e:	60 11 b8    	mul.uu    w2, #0x0, w2
 670:	6b 09 20    	mov.w     #0x96, w11
 672:	95 02 20    	mov.w     #0x29, w5
 674:	01 82 cf    	ff1l      w1, w4
 676:	0a 00 39    	bra       NC, 0x68c <fixshift>
 678:	05 41 b1    	sub.b     #0x10, w5
 67a:	00 82 cf    	ff1l      w0, w4
 67c:	07 00 39    	bra       NC, 0x68c <fixshift>
 67e:	05 41 b1    	sub.b     #0x10, w5
 680:	09 82 cf    	ff1l      w9, w4
 682:	04 00 39    	bra       NC, 0x68c <fixshift>
 684:	05 41 b1    	sub.b     #0x10, w5
 686:	08 82 cf    	ff1l      w8, w4
 688:	01 00 39    	bra       NC, 0x68c <fixshift>
 68a:	05 41 b1    	sub.b     #0x10, w5

0000068c <fixshift>:
 68c:	05 42 52    	sub.b     w4, w5, w4
 68e:	12 00 32    	bra       Z, 0x6b4 <round>
 690:	0a 00 3b    	bra       NN, 0x6a6 <shiftleft>

00000692 <shiftright>:
 692:	82 81 71    	ior.w     w3, w2, w3
 694:	61 01 64    	and.w     w8, #0x1, w2
 696:	81 00 d1    	lsr.w     w1, w1
 698:	00 80 d3    	rrc.w     w0, w0
 69a:	89 84 d3    	rrc.w     w9, w9
 69c:	08 84 d3    	rrc.w     w8, w8
 69e:	8b 05 e8    	inc.w     w11, w11
 6a0:	04 42 e8    	inc.b     w4, w4
 6a2:	f7 ff 3a    	bra       NZ, 0x692 <shiftright>
 6a4:	07 00 37    	bra       0x6b4 <round>

000006a6 <shiftleft>:
 6a6:	08 04 44    	add.w     w8, w8, w8
 6a8:	89 84 4c    	addc.w    w9, w9, w9
 6aa:	00 00 48    	addc.w    w0, w0, w0
 6ac:	81 80 48    	addc.w    w1, w1, w1
 6ae:	8b 05 e9    	dec.w     w11, w11
 6b0:	04 42 e9    	dec.b     w4, w4
 6b2:	f9 ff 3a    	bra       NZ, 0x6a6 <shiftleft>

000006b4 <round>:
 6b4:	63 00 07    	rcall     0x77c <__fpack> <.libm>

000006b6 <return0>:
 6b6:	4f 05 be    	mov.d     [--w15], w10
 6b8:	4f 04 be    	mov.d     [--w15], w8
 6ba:	00 00 06    	return    

000006bc <__funpack>:
 6bc:	c7 0a de    	lsr.w     w1, #0x7, w5
 6be:	f1 07 b2    	and.w     #0x7f, w1
 6c0:	f5 0f b2    	and.w     #0xff, w5
 6c2:	08 00 32    	bra       Z, 0x6d4 <zeroorsub>
 6c4:	e1 cf 42    	add.b     w5, #0x1, [w15]
 6c6:	02 00 32    	bra       Z, 0x6cc <nanorinf>

000006c8 <finitereturn>:
 6c8:	01 70 a0    	bset.w    w1, #0x7
 6ca:	24 00 05    	retlw.w   #0x2, w4

000006cc <nanorinf>:
 6cc:	81 0f 70    	ior.w     w0, w1, [w15]
 6ce:	01 00 32    	bra       Z, 0x6d2 <infinite>
 6d0:	04 08 05    	retlw.w   #0x80, w4

000006d2 <infinite>:
 6d2:	44 00 05    	retlw.w   #0x4, w4

000006d4 <zeroorsub>:
 6d4:	81 0f 70    	ior.w     w0, w1, [w15]
 6d6:	02 00 3a    	bra       NZ, 0x6dc <subnormal>
 6d8:	14 00 05    	retlw.w   #0x1, w4

000006da <normalize>:
 6da:	85 02 e9    	dec.w     w5, w5

000006dc <subnormal>:
 6dc:	00 00 40    	add.w     w0, w0, w0
 6de:	81 c0 48    	addc.b    w1, w1, w1
 6e0:	fc ff 3b    	bra       NN, 0x6da <normalize>
 6e2:	01 70 a0    	bset.w    w1, #0x7
 6e4:	24 00 05    	retlw.w   #0x2, w4

000006e6 <__dPropagateNaN>:
 6e6:	e4 82 40    	add.w     w1, #0x4, w5
 6e8:	10 78 a3    	btst.z    [w0], #0x7
 6ea:	07 00 32    	bra       Z, 0x6fa <returnb>
 6ec:	64 02 40    	add.w     w0, #0x4, w4
 6ee:	11 78 a3    	btst.z    [w1], #0x7
 6f0:	34 00 be    	mov.d     [w4++], w0
 6f2:	14 01 be    	mov.d     [w4], w2
 6f4:	04 00 32    	bra       Z, 0x6fe <returnab>
 6f6:	03 30 a7    	btsc.w    w3, #0x3
 6f8:	00 00 06    	return    

000006fa <returnb>:
 6fa:	35 00 be    	mov.d     [w5++], w0
 6fc:	15 01 be    	mov.d     [w5], w2

000006fe <returnab>:
 6fe:	03 30 a0    	bset.w    w3, #0x3
 700:	00 00 06    	return    

00000702 <__dtype>:
 702:	05 ff 27    	mov.w     #0x7ff0, w5
 704:	05 82 61    	and.w     w3, w5, w4
 706:	07 00 32    	bra       Z, 0x716 <zeroorsub>
 708:	04 28 e1    	cp.w      w5, w4
 70a:	01 00 32    	bra       Z, 0x70e <NaNorInf>

0000070c <isFinite>:
 70c:	24 00 05    	retlw.w   #0x2, w4

0000070e <NaNorInf>:
 70e:	06 00 07    	rcall     0x71c <checkfrac>
 710:	01 00 3a    	bra       NZ, 0x714 <isNaN>
 712:	44 00 05    	retlw.w   #0x4, w4

00000714 <isNaN>:
 714:	04 08 05    	retlw.w   #0x80, w4

00000716 <zeroorsub>:
 716:	02 00 07    	rcall     0x71c <checkfrac>
 718:	f9 ff 3a    	bra       NZ, 0x70c <isFinite>
 71a:	14 00 05    	retlw.w   #0x1, w4

0000071c <checkfrac>:
 71c:	6f 82 61    	and.w     w3, #0xf, w4
 71e:	81 02 70    	ior.w     w0, w1, w5
 720:	85 02 71    	ior.w     w2, w5, w5
 722:	85 02 72    	ior.w     w4, w5, w5
 724:	00 00 06    	return    

00000726 <___floatundidf>:
 726:	88 9f be    	mov.d     w8, [w15++]
 728:	00 82 70    	ior.w     w1, w0, w4
 72a:	04 02 71    	ior.w     w2, w4, w4
 72c:	04 82 71    	ior.w     w3, w4, w4
 72e:	24 00 32    	bra       Z, 0x778 <return0>
 730:	36 43 20    	mov.w     #0x433, w6
 732:	c5 00 20    	mov.w     #0xc, w5
 734:	83 83 cf    	ff1l      w3, w7
 736:	0a 00 39    	bra       NC, 0x74c <fixshift>
 738:	05 41 b1    	sub.b     #0x10, w5
 73a:	82 83 cf    	ff1l      w2, w7
 73c:	07 00 39    	bra       NC, 0x74c <fixshift>
 73e:	05 41 b1    	sub.b     #0x10, w5
 740:	81 83 cf    	ff1l      w1, w7
 742:	04 00 39    	bra       NC, 0x74c <fixshift>
 744:	05 41 b1    	sub.b     #0x10, w5
 746:	80 83 cf    	ff1l      w0, w7
 748:	01 00 39    	bra       NC, 0x74c <fixshift>
 74a:	05 41 b1    	sub.b     #0x10, w5

0000074c <fixshift>:
 74c:	85 c3 53    	sub.b     w7, w5, w7
 74e:	60 22 b8    	mul.uu    w4, #0x0, w4
 750:	12 00 32    	bra       Z, 0x776 <round>
 752:	0a 00 3b    	bra       NN, 0x768 <shiftleft>

00000754 <shiftright>:
 754:	84 82 72    	ior.w     w5, w4, w5
 756:	61 02 60    	and.w     w0, #0x1, w4
 758:	83 01 d1    	lsr.w     w3, w3
 75a:	02 81 d3    	rrc.w     w2, w2
 75c:	81 80 d3    	rrc.w     w1, w1
 75e:	00 80 d3    	rrc.w     w0, w0
 760:	06 03 e8    	inc.w     w6, w6
 762:	87 43 e8    	inc.b     w7, w7
 764:	f7 ff 3a    	bra       NZ, 0x754 <shiftright>
 766:	07 00 37    	bra       0x776 <round>

00000768 <shiftleft>:
 768:	00 00 40    	add.w     w0, w0, w0
 76a:	81 80 48    	addc.w    w1, w1, w1
 76c:	02 01 49    	addc.w    w2, w2, w2
 76e:	83 81 49    	addc.w    w3, w3, w3
 770:	06 03 e9    	dec.w     w6, w6
 772:	87 43 e9    	dec.b     w7, w7
 774:	f9 ff 3a    	bra       NZ, 0x768 <shiftleft>

00000776 <round>:
 776:	a3 fe 07    	rcall     0x4be <__dpack> <.libm>

00000778 <return0>:
 778:	4f 04 be    	mov.d     [--w15], w8
 77a:	00 00 06    	return    

0000077c <__fpack>:
 77c:	81 00 20    	mov.w     #0x8, w1
 77e:	61 80 55    	sub.w     w11, #0x1, w0
 780:	0b 00 3d    	bra       GE, 0x798 <notsubnormal>
 782:	0b 00 20    	mov.w     #0x0, w11
 784:	61 fe 2f    	mov.w     #0xffe6, w1
 786:	01 00 e1    	cp.w      w0, w1
 788:	1d 00 34    	bra       LE, 0x7c4 <zerosig>

0000078a <subnormal>:
 78a:	82 81 71    	ior.w     w3, w2, w3
 78c:	61 01 64    	and.w     w8, #0x1, w2
 78e:	89 04 d1    	lsr.w     w9, w9
 790:	08 84 d3    	rrc.w     w8, w8
 792:	00 00 e8    	inc.w     w0, w0
 794:	fa ff 3a    	bra       NZ, 0x78a <subnormal>
 796:	71 00 20    	mov.w     #0x7, w1

00000798 <notsubnormal>:
 798:	61 00 64    	and.w     w8, #0x1, w0
 79a:	03 00 70    	ior.w     w0, w3, w0
 79c:	02 00 60    	and.w     w0, w2, w0
 79e:	09 00 32    	bra       Z, 0x7b2 <packupandgo>
 7a0:	61 04 44    	add.w     w8, #0x1, w8
 7a2:	e0 84 4c    	addc.w    w9, #0x0, w9
 7a4:	09 88 a5    	btst.z    w9, w1
 7a6:	05 00 32    	bra       Z, 0x7b2 <packupandgo>
 7a8:	8b 05 e8    	inc.w     w11, w11
 7aa:	68 08 e1    	cp.w      w1, #0x8
 7ac:	02 00 3a    	bra       NZ, 0x7b2 <packupandgo>
 7ae:	89 04 d1    	lsr.w     w9, w9
 7b0:	08 84 d3    	rrc.w     w8, w8

000007b2 <packupandgo>:
 7b2:	f2 0f 20    	mov.w     #0xff, w2
 7b4:	02 58 e1    	cp.w      w11, w2
 7b6:	05 00 3d    	bra       GE, 0x7c2 <overflow>
 7b8:	c7 5d dd    	sl.w      w11, #0x7, w11
 7ba:	f9 07 b2    	and.w     #0x7f, w9
 7bc:	89 80 75    	ior.w     w11, w9, w1
 7be:	08 00 78    	mov.w     w8, w0
 7c0:	00 00 06    	return    

000007c2 <overflow>:
 7c2:	0b f8 27    	mov.w     #0x7f80, w11

000007c4 <zerosig>:
 7c4:	8b 00 78    	mov.w     w11, w1
 7c6:	00 00 05    	retlw.w   #0x0, w0
Disassembly of section __FOSC:

00f80000 <__FOSC.sec>:
  f80000:	17 87 00    	nop       
Disassembly of section __FWDT:

00f80002 <__FWDT.sec>:
  f80002:	3f 00 00    	nop       
Disassembly of section __FBORPOR:

00f80004 <__FBORPOR.sec>:
  f80004:	b3 87 00    	nop       
Disassembly of section __FGS:

00f8000a <__FGS.sec>:
  f8000a:	ff ff 00    	nop       
Disassembly of section __FICD:

00f8000c <__FICD.sec>:
  f8000c:	03 c0 00    	nop       
Disassembly of section .ivt._T1Interrupt:

0000001a <.ivt._T1Interrupt>:
  1a:	9c 16 00    	nop       
Disassembly of section .ivt._T2Interrupt:

00000020 <.ivt._T2Interrupt>:
  20:	be 16 00    	nop       
Disassembly of section .ivt._T3Interrupt:

00000022 <.ivt._T3Interrupt>:
  22:	e0 16 00    	nop       
Disassembly of section .text:

000008a4 <_FCI_GETLENGTH>:
     8a4:	00 01 eb    	clr.w     w2
     8a6:	01 00 e0    	cp0.w     w1
     8a8:	08 00 32    	bra       Z, 0x8ba <.L2>
     8aa:	10 04 e0    	cp0.b     [w0]
     8ac:	03 00 3a    	bra       NZ, 0x8b4 <.L3>
     8ae:	05 00 37    	bra       0x8ba <.L2>

000008b0 <.L4>:
     8b0:	50 04 e0    	cp0.b     [++w0]
     8b2:	03 00 32    	bra       Z, 0x8ba <.L2>

000008b4 <.L3>:
     8b4:	02 01 e8    	inc.w     w2, w2
     8b6:	82 8f 50    	sub.w     w1, w2, [w15]
     8b8:	fb ff 3e    	bra       GTU, 0x8b0 <.L4>

000008ba <.L2>:
     8ba:	02 00 78    	mov.w     w2, w0
     8bc:	00 00 06    	return    

000008be <_FCI_TOSTRS32>:
     8be:	e8 87 47    	add.w     w15, #0x8, w15
     8c0:	88 9f be    	mov.d     w8, [w15++]
     8c2:	8a 9f be    	mov.d     w10, [w15++]
     8c4:	8c 9f be    	mov.d     w12, [w15++]
     8c6:	8e 1f 78    	mov.w     w14, [w15++]
     8c8:	e2 b7 9f    	mov.w     w2, [w15-20]
     8ca:	83 06 78    	mov.w     w3, w13
     8cc:	00 46 eb    	clr.b     w12
     8ce:	0d 00 e0    	cp0.w     w13
     8d0:	43 00 32    	bra       Z, 0x958 <.L8>
     8d2:	e0 0f 50    	sub.w     w0, #0x0, [w15]
     8d4:	e0 8f 58    	subb.w    w1, #0x0, [w15]
     8d6:	09 00 3d    	bra       GE, 0x8ea <.L18>
     8d8:	d2 c2 b3    	mov.b     #0x2d, w2
     8da:	ef b1 97    	mov.w     [w15-20], w3
     8dc:	82 49 78    	mov.b     w2, [w3]
     8de:	60 01 10    	subr.w    w0, #0x0, w2
     8e0:	e0 81 18    	subbr.w   w1, #0x0, w3
     8e2:	f2 b7 9f    	mov.w     w2, [w15-18]
     8e4:	83 bf 9f    	mov.w     w3, [w15-16]
     8e6:	1c 00 20    	mov.w     #0x1, w12
     8e8:	03 00 37    	bra       0x8f0 <.L9>

000008ea <.L18>:
     8ea:	f0 b7 9f    	mov.w     w0, [w15-18]
     8ec:	81 bf 9f    	mov.w     w1, [w15-16]
     8ee:	00 06 eb    	clr.w     w12

000008f0 <.L9>:
     8f0:	18 00 20    	mov.w     #0x1, w8
     8f2:	09 00 20    	mov.w     #0x0, w9
     8f4:	1e c0 b3    	mov.b     #0x1, w14
     8f6:	7f b0 97    	mov.w     [w15-18], w0
     8f8:	8f b8 97    	mov.w     [w15-16], w1
     8fa:	e0 0f 50    	sub.w     w0, #0x0, [w15]
     8fc:	e0 8f 58    	subb.w    w1, #0x0, [w15]
     8fe:	03 00 32    	bra       Z, 0x906 <.L10>
     900:	08 a0 2c    	mov.w     #0xca00, w8
     902:	a9 b9 23    	mov.w     #0x3b9a, w9
     904:	00 47 eb    	clr.b     w14

00000906 <.L10>:
     906:	8d 0f 56    	sub.w     w12, w13, [w15]
     908:	27 00 31    	bra       C, 0x958 <.L8>
     90a:	e0 0f 54    	sub.w     w8, #0x0, [w15]
     90c:	e0 8f 5c    	subb.w    w9, #0x0, [w15]
     90e:	2b 00 32    	bra       Z, 0x966 <.L12>

00000910 <.L15>:
     910:	7f b5 97    	mov.w     [w15-18], w10
     912:	8f bd 97    	mov.w     [w15-16], w11
     914:	88 0f 55    	sub.w     w10, w8, [w15]
     916:	89 8f 5d    	subb.w    w11, w9, [w15]
     918:	02 00 31    	bra       C, 0x91e <.L13>
     91a:	0e 04 e0    	cp0.b     w14
     91c:	12 00 32    	bra       Z, 0x942 <.L14>

0000091e <.L13>:
     91e:	08 01 be    	mov.d     w8, w2
     920:	0a 00 be    	mov.d     w10, w0
     922:	52 fc 07    	rcall     0x1c8 <___udivsi3> <.libm>
     924:	03 c3 b3    	mov.b     #0x30, w3
     926:	83 40 40    	add.b     w0, w3, w1
     928:	6f b1 97    	mov.w     [w15-20], w2
     92a:	01 71 7e    	mov.b     w1, [w2+w12]
     92c:	0c 06 e8    	inc.w     w12, w12
     92e:	00 80 fb    	ze        w0, w0
     930:	80 00 eb    	clr.w     w1
     932:	00 c9 b9    	mul.ss    w9, w0, w2
     934:	08 00 b8    	mul.uu    w0, w8, w0
     936:	81 00 41    	add.w     w2, w1, w1
     938:	00 01 55    	sub.w     w10, w0, w2
     93a:	81 81 5d    	subb.w    w11, w1, w3
     93c:	f2 b7 9f    	mov.w     w2, [w15-18]
     93e:	83 bf 9f    	mov.w     w3, [w15-16]
     940:	1e c0 b3    	mov.b     #0x1, w14

00000942 <.L14>:
     942:	8d 0f 56    	sub.w     w12, w13, [w15]
     944:	09 00 31    	bra       C, 0x958 <.L8>
     946:	a2 00 20    	mov.w     #0xa, w2
     948:	03 00 20    	mov.w     #0x0, w3
     94a:	08 00 be    	mov.d     w8, w0
     94c:	3d fc 07    	rcall     0x1c8 <___udivsi3> <.libm>
     94e:	00 04 be    	mov.d     w0, w8
     950:	e0 0f 50    	sub.w     w0, #0x0, [w15]
     952:	e0 8f 58    	subb.w    w1, #0x0, [w15]
     954:	dd ff 3a    	bra       NZ, 0x910 <.L15>
     956:	07 00 37    	bra       0x966 <.L12>

00000958 <.L8>:
     958:	0c 40 78    	mov.b     w12, w0
     95a:	4f 07 78    	mov.w     [--w15], w14
     95c:	4f 06 be    	mov.d     [--w15], w12
     95e:	4f 05 be    	mov.d     [--w15], w10
     960:	4f 04 be    	mov.d     [--w15], w8
     962:	8f 00 b1    	sub.w     #0x8, w15
     964:	00 00 06    	return    

00000966 <.L12>:
     966:	00 40 eb    	clr.b     w0
     968:	ef b1 97    	mov.w     [w15-20], w3
     96a:	80 71 7e    	mov.b     w0, [w3+w12]
     96c:	f5 ff 37    	bra       0x958 <.L8>

0000096e <_FCI_TOSTRU32>:
     96e:	e4 87 47    	add.w     w15, #0x4, w15
     970:	88 9f be    	mov.d     w8, [w15++]
     972:	8a 9f be    	mov.d     w10, [w15++]
     974:	8c 9f be    	mov.d     w12, [w15++]
     976:	8e 1f 78    	mov.w     w14, [w15++]
     978:	82 bf 9f    	mov.w     w2, [w15-16]
     97a:	03 07 78    	mov.w     w3, w14
     97c:	00 46 eb    	clr.b     w12
     97e:	0e 00 e0    	cp0.w     w14
     980:	2c 00 32    	bra       Z, 0x9da <.L21>
     982:	18 00 20    	mov.w     #0x1, w8
     984:	09 00 20    	mov.w     #0x0, w9
     986:	60 55 b8    	mul.uu    w10, #0x0, w10
     988:	1d c0 b3    	mov.b     #0x1, w13
     98a:	e0 0f 50    	sub.w     w0, #0x0, [w15]
     98c:	e0 8f 58    	subb.w    w1, #0x0, [w15]
     98e:	04 00 32    	bra       Z, 0x998 <.L22>
     990:	00 05 be    	mov.d     w0, w10
     992:	08 a0 2c    	mov.w     #0xca00, w8
     994:	a9 b9 23    	mov.w     #0x3b9a, w9
     996:	80 46 eb    	clr.b     w13

00000998 <.L22>:
     998:	00 06 eb    	clr.w     w12

0000099a <.L26>:
     99a:	88 0f 55    	sub.w     w10, w8, [w15]
     99c:	89 8f 5d    	subb.w    w11, w9, [w15]
     99e:	02 00 31    	bra       C, 0x9a4 <.L23>
     9a0:	0d 04 e0    	cp0.b     w13
     9a2:	10 00 32    	bra       Z, 0x9c4 <.L24>

000009a4 <.L23>:
     9a4:	08 01 be    	mov.d     w8, w2
     9a6:	0a 00 be    	mov.d     w10, w0
     9a8:	0f fc 07    	rcall     0x1c8 <___udivsi3> <.libm>
     9aa:	02 c3 b3    	mov.b     #0x30, w2
     9ac:	82 40 40    	add.b     w0, w2, w1
     9ae:	0f b9 97    	mov.w     [w15-16], w2
     9b0:	01 71 7e    	mov.b     w1, [w2+w12]
     9b2:	0c 06 e8    	inc.w     w12, w12
     9b4:	00 80 fb    	ze        w0, w0
     9b6:	80 00 eb    	clr.w     w1
     9b8:	00 c9 b9    	mul.ss    w9, w0, w2
     9ba:	08 00 b8    	mul.uu    w0, w8, w0
     9bc:	81 00 41    	add.w     w2, w1, w1
     9be:	00 05 55    	sub.w     w10, w0, w10
     9c0:	81 85 5d    	subb.w    w11, w1, w11
     9c2:	1d c0 b3    	mov.b     #0x1, w13

000009c4 <.L24>:
     9c4:	8e 0f 56    	sub.w     w12, w14, [w15]
     9c6:	09 00 31    	bra       C, 0x9da <.L21>
     9c8:	a2 00 20    	mov.w     #0xa, w2
     9ca:	03 00 20    	mov.w     #0x0, w3
     9cc:	08 00 be    	mov.d     w8, w0
     9ce:	fc fb 07    	rcall     0x1c8 <___udivsi3> <.libm>
     9d0:	00 04 be    	mov.d     w0, w8
     9d2:	e0 0f 50    	sub.w     w0, #0x0, [w15]
     9d4:	e0 8f 58    	subb.w    w1, #0x0, [w15]
     9d6:	e1 ff 3a    	bra       NZ, 0x99a <.L26>
     9d8:	07 00 37    	bra       0x9e8 <.L31>

000009da <.L21>:
     9da:	0c 40 78    	mov.b     w12, w0
     9dc:	4f 07 78    	mov.w     [--w15], w14
     9de:	4f 06 be    	mov.d     [--w15], w12
     9e0:	4f 05 be    	mov.d     [--w15], w10
     9e2:	4f 04 be    	mov.d     [--w15], w8
     9e4:	4f 00 b1    	sub.w     #0x4, w15
     9e6:	00 00 06    	return    

000009e8 <.L31>:
     9e8:	00 40 eb    	clr.b     w0
     9ea:	8f b8 97    	mov.w     [w15-16], w1
     9ec:	80 70 7e    	mov.b     w0, [w1+w12]
     9ee:	f5 ff 37    	bra       0x9da <.L21>

000009f0 <_FCI_TOSTRING>:
     9f0:	e8 87 47    	add.w     w15, #0x8, w15
     9f2:	88 9f be    	mov.d     w8, [w15++]
     9f4:	8a 9f be    	mov.d     w10, [w15++]
     9f6:	8c 9f be    	mov.d     w12, [w15++]
     9f8:	8e 1f 78    	mov.w     w14, [w15++]
     9fa:	e2 b7 9f    	mov.w     w2, [w15-20]
     9fc:	83 06 78    	mov.w     w3, w13
     9fe:	0d 00 e0    	cp0.w     w13
     a00:	43 00 32    	bra       Z, 0xa88 <.L33>
     a02:	e0 0f 50    	sub.w     w0, #0x0, [w15]
     a04:	e0 8f 58    	subb.w    w1, #0x0, [w15]
     a06:	09 00 3d    	bra       GE, 0xa1a <.L40>
     a08:	d2 c2 b3    	mov.b     #0x2d, w2
     a0a:	ef b1 97    	mov.w     [w15-20], w3
     a0c:	82 49 78    	mov.b     w2, [w3]
     a0e:	60 01 10    	subr.w    w0, #0x0, w2
     a10:	e0 81 18    	subbr.w   w1, #0x0, w3
     a12:	f2 b7 9f    	mov.w     w2, [w15-18]
     a14:	83 bf 9f    	mov.w     w3, [w15-16]
     a16:	1c 00 20    	mov.w     #0x1, w12
     a18:	03 00 37    	bra       0xa20 <.L34>

00000a1a <.L40>:
     a1a:	f0 b7 9f    	mov.w     w0, [w15-18]
     a1c:	81 bf 9f    	mov.w     w1, [w15-16]
     a1e:	00 06 eb    	clr.w     w12

00000a20 <.L34>:
     a20:	18 00 20    	mov.w     #0x1, w8
     a22:	09 00 20    	mov.w     #0x0, w9
     a24:	1e c0 b3    	mov.b     #0x1, w14
     a26:	7f b0 97    	mov.w     [w15-18], w0
     a28:	8f b8 97    	mov.w     [w15-16], w1
     a2a:	e0 0f 50    	sub.w     w0, #0x0, [w15]
     a2c:	e0 8f 58    	subb.w    w1, #0x0, [w15]
     a2e:	03 00 32    	bra       Z, 0xa36 <.L35>
     a30:	08 a0 2c    	mov.w     #0xca00, w8
     a32:	a9 b9 23    	mov.w     #0x3b9a, w9
     a34:	00 47 eb    	clr.b     w14

00000a36 <.L35>:
     a36:	8d 0f 56    	sub.w     w12, w13, [w15]
     a38:	27 00 31    	bra       C, 0xa88 <.L33>
     a3a:	e0 0f 54    	sub.w     w8, #0x0, [w15]
     a3c:	e0 8f 5c    	subb.w    w9, #0x0, [w15]
     a3e:	2b 00 32    	bra       Z, 0xa96 <.L36>

00000a40 <.L39>:
     a40:	7f b5 97    	mov.w     [w15-18], w10
     a42:	8f bd 97    	mov.w     [w15-16], w11
     a44:	88 0f 55    	sub.w     w10, w8, [w15]
     a46:	89 8f 5d    	subb.w    w11, w9, [w15]
     a48:	02 00 31    	bra       C, 0xa4e <.L37>
     a4a:	0e 04 e0    	cp0.b     w14
     a4c:	12 00 32    	bra       Z, 0xa72 <.L38>

00000a4e <.L37>:
     a4e:	08 01 be    	mov.d     w8, w2
     a50:	0a 00 be    	mov.d     w10, w0
     a52:	ba fb 07    	rcall     0x1c8 <___udivsi3> <.libm>
     a54:	03 c3 b3    	mov.b     #0x30, w3
     a56:	83 40 40    	add.b     w0, w3, w1
     a58:	6f b1 97    	mov.w     [w15-20], w2
     a5a:	01 71 7e    	mov.b     w1, [w2+w12]
     a5c:	0c 06 e8    	inc.w     w12, w12
     a5e:	00 80 fb    	ze        w0, w0
     a60:	80 00 eb    	clr.w     w1
     a62:	00 c9 b9    	mul.ss    w9, w0, w2
     a64:	08 00 b8    	mul.uu    w0, w8, w0
     a66:	81 00 41    	add.w     w2, w1, w1
     a68:	00 01 55    	sub.w     w10, w0, w2
     a6a:	81 81 5d    	subb.w    w11, w1, w3
     a6c:	f2 b7 9f    	mov.w     w2, [w15-18]
     a6e:	83 bf 9f    	mov.w     w3, [w15-16]
     a70:	1e c0 b3    	mov.b     #0x1, w14

00000a72 <.L38>:
     a72:	8d 0f 56    	sub.w     w12, w13, [w15]
     a74:	09 00 31    	bra       C, 0xa88 <.L33>
     a76:	a2 00 20    	mov.w     #0xa, w2
     a78:	03 00 20    	mov.w     #0x0, w3
     a7a:	08 00 be    	mov.d     w8, w0
     a7c:	a5 fb 07    	rcall     0x1c8 <___udivsi3> <.libm>
     a7e:	00 04 be    	mov.d     w0, w8
     a80:	e0 0f 50    	sub.w     w0, #0x0, [w15]
     a82:	e0 8f 58    	subb.w    w1, #0x0, [w15]
     a84:	dd ff 3a    	bra       NZ, 0xa40 <.L39>
     a86:	07 00 37    	bra       0xa96 <.L36>

00000a88 <.L33>:
     a88:	6f b0 97    	mov.w     [w15-20], w0
     a8a:	4f 07 78    	mov.w     [--w15], w14
     a8c:	4f 06 be    	mov.d     [--w15], w12
     a8e:	4f 05 be    	mov.d     [--w15], w10
     a90:	4f 04 be    	mov.d     [--w15], w8
     a92:	8f 00 b1    	sub.w     #0x8, w15
     a94:	00 00 06    	return    

00000a96 <.L36>:
     a96:	00 40 eb    	clr.b     w0
     a98:	ef b1 97    	mov.w     [w15-20], w3
     a9a:	80 71 7e    	mov.b     w0, [w3+w12]
     a9c:	f5 ff 37    	bra       0xa88 <.L33>

00000a9e <_FCI_SHEAD>:
     a9e:	88 9f be    	mov.d     w8, [w15++]
     aa0:	84 0f 51    	sub.w     w2, w4, [w15]
     aa2:	09 00 32    	bra       Z, 0xab6 <.L43>
     aa4:	01 00 e0    	cp0.w     w1
     aa6:	62 00 32    	bra       Z, 0xb6c <.L67>
     aa8:	05 00 e0    	cp0.w     w5
     aaa:	7c 00 32    	bra       Z, 0xba4 <.L42>
     aac:	90 43 78    	mov.b     [w0], w7
     aae:	00 03 eb    	clr.w     w6
     ab0:	07 04 e0    	cp0.b     w7
     ab2:	50 00 3a    	bra       NZ, 0xb54 <.L79>
     ab4:	5c 00 37    	bra       0xb6e <.L44>

00000ab6 <.L43>:
     ab6:	00 03 eb    	clr.w     w6
     ab8:	01 00 e0    	cp0.w     w1
     aba:	09 00 32    	bra       Z, 0xace <.L47>
     abc:	10 04 e0    	cp0.b     [w0]
     abe:	07 00 32    	bra       Z, 0xace <.L47>
     ac0:	80 03 78    	mov.w     w0, w7
     ac2:	02 00 37    	bra       0xac8 <.L48>

00000ac4 <.L49>:
     ac4:	57 04 e0    	cp0.b     [++w7]
     ac6:	03 00 32    	bra       Z, 0xace <.L47>

00000ac8 <.L48>:
     ac8:	06 03 e8    	inc.w     w6, w6
     aca:	86 8f 50    	sub.w     w1, w6, [w15]
     acc:	fb ff 3e    	bra       GTU, 0xac4 <.L49>

00000ace <.L47>:
     ace:	86 8f 52    	sub.w     w5, w6, [w15]
     ad0:	09 00 3e    	bra       GTU, 0xae4 <.L50>
     ad2:	01 00 e0    	cp0.w     w1
     ad4:	62 00 32    	bra       Z, 0xb9a <.L70>
     ad6:	05 00 e0    	cp0.w     w5
     ad8:	65 00 32    	bra       Z, 0xba4 <.L42>
     ada:	10 41 78    	mov.b     [w0], w2
     adc:	00 03 eb    	clr.w     w6
     ade:	02 04 e0    	cp0.b     w2
     ae0:	2d 00 3a    	bra       NZ, 0xb3c <.L80>
     ae2:	5c 00 37    	bra       0xb9c <.L51>

00000ae4 <.L50>:
     ae4:	80 03 eb    	clr.w     w7
     ae6:	03 00 e0    	cp0.w     w3
     ae8:	16 00 32    	bra       Z, 0xb16 <.L53>
     aea:	12 04 e0    	cp0.b     [w2]
     aec:	14 00 32    	bra       Z, 0xb16 <.L53>
     aee:	02 04 78    	mov.w     w2, w8
     af0:	02 00 37    	bra       0xaf6 <.L54>

00000af2 <.L56>:
     af2:	58 04 e0    	cp0.b     [++w8]
     af4:	03 00 32    	bra       Z, 0xafc <.L55>

00000af6 <.L54>:
     af6:	87 03 e8    	inc.w     w7, w7
     af8:	87 8f 51    	sub.w     w3, w7, [w15]
     afa:	fb ff 3e    	bra       GTU, 0xaf2 <.L56>

00000afc <.L55>:
     afc:	86 81 52    	sub.w     w5, w6, w3
     afe:	83 8f 53    	sub.w     w7, w3, [w15]
     b00:	01 00 36    	bra       LEU, 0xb04 <.L57>
     b02:	83 03 78    	mov.w     w3, w7

00000b04 <.L57>:
     b04:	07 00 e0    	cp0.w     w7
     b06:	07 00 32    	bra       Z, 0xb16 <.L53>
     b08:	87 04 41    	add.w     w2, w7, w9
     b0a:	06 83 43    	add.w     w7, w6, w6
     b0c:	06 04 41    	add.w     w2, w6, w8
     b0e:	87 01 78    	mov.w     w7, w3

00000b10 <.L58>:
     b10:	83 01 e9    	dec.w     w3, w3
     b12:	49 64 78    	mov.b     [--w9], [--w8]
     b14:	fd ff 3a    	bra       NZ, 0xb10 <.L58>

00000b16 <.L53>:
     b16:	80 01 eb    	clr.w     w3
     b18:	01 00 e0    	cp0.w     w1
     b1a:	0e 00 32    	bra       Z, 0xb38 <.L59>
     b1c:	05 00 e0    	cp0.w     w5
     b1e:	0c 00 32    	bra       Z, 0xb38 <.L59>
     b20:	10 44 78    	mov.b     [w0], w8
     b22:	08 04 e0    	cp0.b     w8
     b24:	09 00 32    	bra       Z, 0xb38 <.L59>

00000b26 <.L60>:
     b26:	08 59 78    	mov.b     w8, [w2++]
     b28:	83 01 e8    	inc.w     w3, w3
     b2a:	83 8f 50    	sub.w     w1, w3, [w15]
     b2c:	05 00 36    	bra       LEU, 0xb38 <.L59>
     b2e:	83 8f 52    	sub.w     w5, w3, [w15]
     b30:	03 00 36    	bra       LEU, 0xb38 <.L59>
     b32:	50 44 78    	mov.b     [++w0], w8
     b34:	08 04 e0    	cp0.b     w8
     b36:	f7 ff 3a    	bra       NZ, 0xb26 <.L60>

00000b38 <.L59>:
     b38:	07 83 41    	add.w     w3, w7, w6
     b3a:	30 00 37    	bra       0xb9c <.L51>

00000b3c <.L80>:
     b3c:	84 01 78    	mov.w     w4, w3
     b3e:	00 03 eb    	clr.w     w6

00000b40 <.L61>:
     b40:	82 59 78    	mov.b     w2, [w3++]
     b42:	06 03 e8    	inc.w     w6, w6
     b44:	86 8f 50    	sub.w     w1, w6, [w15]
     b46:	2a 00 36    	bra       LEU, 0xb9c <.L51>
     b48:	86 8f 52    	sub.w     w5, w6, [w15]
     b4a:	2c 00 36    	bra       LEU, 0xba4 <.L42>
     b4c:	50 41 78    	mov.b     [++w0], w2
     b4e:	02 04 e0    	cp0.b     w2
     b50:	f7 ff 3a    	bra       NZ, 0xb40 <.L61>
     b52:	26 00 37    	bra       0xba0 <.L62>

00000b54 <.L79>:
     b54:	04 04 78    	mov.w     w4, w8
     b56:	00 03 eb    	clr.w     w6

00000b58 <.L63>:
     b58:	07 5c 78    	mov.b     w7, [w8++]
     b5a:	06 03 e8    	inc.w     w6, w6
     b5c:	86 8f 50    	sub.w     w1, w6, [w15]
     b5e:	07 00 36    	bra       LEU, 0xb6e <.L44>
     b60:	86 8f 52    	sub.w     w5, w6, [w15]
     b62:	20 00 36    	bra       LEU, 0xba4 <.L42>
     b64:	d0 43 78    	mov.b     [++w0], w7
     b66:	07 04 e0    	cp0.b     w7
     b68:	f7 ff 3a    	bra       NZ, 0xb58 <.L63>
     b6a:	03 00 37    	bra       0xb72 <.L64>

00000b6c <.L67>:
     b6c:	00 03 eb    	clr.w     w6

00000b6e <.L44>:
     b6e:	86 8f 52    	sub.w     w5, w6, [w15]
     b70:	19 00 36    	bra       LEU, 0xba4 <.L42>

00000b72 <.L64>:
     b72:	86 03 42    	add.w     w4, w6, w7
     b74:	00 00 eb    	clr.w     w0
     b76:	03 00 e0    	cp0.w     w3
     b78:	0e 00 32    	bra       Z, 0xb96 <.L65>
     b7a:	06 84 52    	sub.w     w5, w6, w8
     b7c:	0c 00 32    	bra       Z, 0xb96 <.L65>
     b7e:	92 40 78    	mov.b     [w2], w1
     b80:	01 04 e0    	cp0.b     w1
     b82:	09 00 32    	bra       Z, 0xb96 <.L65>

00000b84 <.L66>:
     b84:	81 5b 78    	mov.b     w1, [w7++]
     b86:	00 00 e8    	inc.w     w0, w0
     b88:	80 8f 51    	sub.w     w3, w0, [w15]
     b8a:	05 00 36    	bra       LEU, 0xb96 <.L65>
     b8c:	80 0f 54    	sub.w     w8, w0, [w15]
     b8e:	03 00 36    	bra       LEU, 0xb96 <.L65>
     b90:	d2 40 78    	mov.b     [++w2], w1
     b92:	01 04 e0    	cp0.b     w1
     b94:	f7 ff 3a    	bra       NZ, 0xb84 <.L66>

00000b96 <.L65>:
     b96:	06 03 40    	add.w     w0, w6, w6
     b98:	01 00 37    	bra       0xb9c <.L51>

00000b9a <.L70>:
     b9a:	00 03 eb    	clr.w     w6

00000b9c <.L51>:
     b9c:	85 0f 53    	sub.w     w6, w5, [w15]
     b9e:	02 00 31    	bra       C, 0xba4 <.L42>

00000ba0 <.L62>:
     ba0:	00 40 eb    	clr.b     w0
     ba2:	00 72 7b    	mov.b     w0, [w4+w6]

00000ba4 <.L42>:
     ba4:	4f 04 be    	mov.d     [--w15], w8
     ba6:	00 00 06    	return    

00000ba8 <_FCI_SCOPY>:
     ba8:	01 00 e0    	cp0.w     w1
     baa:	11 00 32    	bra       Z, 0xbce <.L86>
     bac:	03 00 e0    	cp0.w     w3
     bae:	16 00 32    	bra       Z, 0xbdc <.L81>
     bb0:	90 42 78    	mov.b     [w0], w5
     bb2:	05 04 e0    	cp0.b     w5
     bb4:	0e 00 32    	bra       Z, 0xbd2 <.L87>
     bb6:	02 03 78    	mov.w     w2, w6
     bb8:	00 02 eb    	clr.w     w4

00000bba <.L84>:
     bba:	05 5b 78    	mov.b     w5, [w6++]
     bbc:	04 02 e8    	inc.w     w4, w4
     bbe:	84 8f 50    	sub.w     w1, w4, [w15]
     bc0:	09 00 36    	bra       LEU, 0xbd4 <.L82>
     bc2:	84 8f 51    	sub.w     w3, w4, [w15]
     bc4:	0b 00 36    	bra       LEU, 0xbdc <.L81>
     bc6:	d0 42 78    	mov.b     [++w0], w5
     bc8:	05 04 e0    	cp0.b     w5
     bca:	f7 ff 3a    	bra       NZ, 0xbba <.L84>
     bcc:	05 00 37    	bra       0xbd8 <.L85>

00000bce <.L86>:
     bce:	00 02 eb    	clr.w     w4
     bd0:	01 00 37    	bra       0xbd4 <.L82>

00000bd2 <.L87>:
     bd2:	00 02 eb    	clr.w     w4

00000bd4 <.L82>:
     bd4:	84 8f 51    	sub.w     w3, w4, [w15]
     bd6:	02 00 36    	bra       LEU, 0xbdc <.L81>

00000bd8 <.L85>:
     bd8:	00 40 eb    	clr.b     w0
     bda:	00 71 7a    	mov.b     w0, [w2+w4]

00000bdc <.L81>:
     bdc:	00 00 06    	return    

00000bde <_FCI_FLOAT_TO_STRING>:
     bde:	f8 87 47    	add.w     w15, #0x18, w15
     be0:	88 9f be    	mov.d     w8, [w15++]
     be2:	8a 9f be    	mov.d     w10, [w15++]
     be4:	8c 9f be    	mov.d     w12, [w15++]
     be6:	8e 1f 78    	mov.w     w14, [w15++]
     be8:	00 04 be    	mov.d     w0, w8
     bea:	02 05 be    	mov.d     w2, w10
     bec:	d8 b7 9f    	mov.w     w8, [w15-22]
     bee:	e9 b7 9f    	mov.w     w9, [w15-20]
     bf0:	fa b7 9f    	mov.w     w10, [w15-18]
     bf2:	8b bf 9f    	mov.w     w11, [w15-16]
     bf4:	84 46 78    	mov.b     w4, w13
     bf6:	c5 b7 9f    	mov.w     w5, [w15-24]
     bf8:	06 07 78    	mov.w     w6, w14
     bfa:	0d 04 e0    	cp0.b     w13
     bfc:	11 00 32    	bra       Z, 0xc20 <.L101>
     bfe:	60 44 b8    	mul.uu    w8, #0x0, w8
     c00:	0a 00 20    	mov.w     #0x0, w10
     c02:	0b fe 23    	mov.w     #0x3fe0, w11
     c04:	00 46 eb    	clr.b     w12
     c06:	08 00 be    	mov.d     w8, w0
     c08:	0a 01 be    	mov.d     w10, w2

00000c0a <.L90>:
     c0a:	a4 99 29    	mov.w     #0x999a, w4
     c0c:	95 99 29    	mov.w     #0x9999, w5
     c0e:	96 99 29    	mov.w     #0x9999, w6
     c10:	97 fb 23    	mov.w     #0x3fb9, w7
     c12:	ea fa 07    	rcall     0x1e8 <___muldf3> <.libm>
     c14:	0c 46 e8    	inc.b     w12, w12
     c16:	8c cf 56    	sub.b     w13, w12, [w15]
     c18:	f8 ff 3e    	bra       GTU, 0xc0a <.L90>
     c1a:	00 04 be    	mov.d     w0, w8
     c1c:	02 05 be    	mov.d     w2, w10
     c1e:	03 00 37    	bra       0xc26 <.L89>

00000c20 <.L101>:
     c20:	60 44 b8    	mul.uu    w8, #0x0, w8
     c22:	0a 00 20    	mov.w     #0x0, w10
     c24:	0b fe 23    	mov.w     #0x3fe0, w11

00000c26 <.L89>:
     c26:	60 22 b8    	mul.uu    w4, #0x0, w4
     c28:	60 33 b8    	mul.uu    w6, #0x0, w6
     c2a:	5f b0 97    	mov.w     [w15-22], w0
     c2c:	ef b0 97    	mov.w     [w15-20], w1
     c2e:	7f b1 97    	mov.w     [w15-18], w2
     c30:	8f b9 97    	mov.w     [w15-16], w3
     c32:	4f fb 07    	rcall     0x2d2 <___eqdf2> <___ledf2> <___ltdf2> <.libm>
     c34:	00 06 eb    	clr.w     w12
     c36:	00 00 e0    	cp0.w     w0
     c38:	0d 00 3d    	bra       GE, 0xc54 <.L91>
     c3a:	5f b0 97    	mov.w     [w15-22], w0
     c3c:	ef b0 97    	mov.w     [w15-20], w1
     c3e:	7f b1 97    	mov.w     [w15-18], w2
     c40:	8f b9 97    	mov.w     [w15-16], w3
     c42:	03 f0 a2    	btg.w     w3, #0xf
     c44:	d0 b7 9f    	mov.w     w0, [w15-22]
     c46:	e1 b7 9f    	mov.w     w1, [w15-20]
     c48:	f2 b7 9f    	mov.w     w2, [w15-18]
     c4a:	83 bf 9f    	mov.w     w3, [w15-16]
     c4c:	d0 c2 b3    	mov.b     #0x2d, w0
     c4e:	cf b0 97    	mov.w     [w15-24], w1
     c50:	80 48 78    	mov.b     w0, [w1]
     c52:	1c 00 20    	mov.w     #0x1, w12

00000c54 <.L91>:
     c54:	08 02 be    	mov.d     w8, w4
     c56:	0a 03 be    	mov.d     w10, w6
     c58:	5f b0 97    	mov.w     [w15-22], w0
     c5a:	ef b0 97    	mov.w     [w15-20], w1
     c5c:	7f b1 97    	mov.w     [w15-18], w2
     c5e:	8f b9 97    	mov.w     [w15-16], w3
     c60:	3d fb 07    	rcall     0x2dc <___adddf3> <.libm>
     c62:	00 04 be    	mov.d     w0, w8
     c64:	02 05 be    	mov.d     w2, w10
     c66:	b7 fb 07    	rcall     0x3d6 <_floor> <_floorl> <.libm>
     c68:	00 02 be    	mov.d     w0, w4
     c6a:	02 03 be    	mov.d     w2, w6
     c6c:	d4 b7 9f    	mov.w     w4, [w15-22]
     c6e:	e5 b7 9f    	mov.w     w5, [w15-20]
     c70:	f6 b7 9f    	mov.w     w6, [w15-18]
     c72:	87 bf 9f    	mov.w     w7, [w15-16]
     c74:	b9 fb 07    	rcall     0x3e8 <___fixdfsi> <.libm>
     c76:	c3 00 20    	mov.w     #0xc, w3
     c78:	c2 fd 2f    	mov.w     #0xffdc, w2
     c7a:	0f 01 41    	add.w     w2, w15, w2
     c7c:	b9 fe 07    	rcall     0x9f0 <_FCI_TOSTRING>
     c7e:	cf d8 97    	mov.b     [w15-36], w1
     c80:	01 04 e0    	cp0.b     w1
     c82:	0d 00 32    	bra       Z, 0xc9e <.L93>
     c84:	00 40 eb    	clr.b     w0
     c86:	4f b1 97    	mov.w     [w15-24], w2

00000c88 <.L95>:
     c88:	8c 0f 57    	sub.w     w14, w12, [w15]
     c8a:	02 00 36    	bra       LEU, 0xc90 <.L94>
     c8c:	01 71 7e    	mov.b     w1, [w2+w12]
     c8e:	0c 06 e8    	inc.w     w12, w12

00000c90 <.L94>:
     c90:	00 40 e8    	inc.b     w0, w0
     c92:	80 80 fb    	ze        w0, w1
     c94:	c5 fd 2f    	mov.w     #0xffdc, w5
     c96:	8f 82 42    	add.w     w5, w15, w5
     c98:	e5 c0 78    	mov.b     [w5+w1], w1
     c9a:	01 04 e0    	cp0.b     w1
     c9c:	f5 ff 3a    	bra       NZ, 0xc88 <.L95>

00000c9e <.L93>:
     c9e:	8c 0f 57    	sub.w     w14, w12, [w15]
     ca0:	04 00 36    	bra       LEU, 0xcaa <.L96>
     ca2:	e0 c2 b3    	mov.b     #0x2e, w0
     ca4:	4f b3 97    	mov.w     [w15-24], w6
     ca6:	00 73 7e    	mov.b     w0, [w6+w12]
     ca8:	0c 06 e8    	inc.w     w12, w12

00000caa <.L96>:
     caa:	0d 04 e0    	cp0.b     w13
     cac:	2a 00 32    	bra       Z, 0xd02 <.L103>
     cae:	8e 0f 56    	sub.w     w12, w14, [w15]
     cb0:	2e 00 31    	bra       C, 0xd0e <.L98>
     cb2:	5f b2 97    	mov.w     [w15-22], w4
     cb4:	ef b2 97    	mov.w     [w15-20], w5
     cb6:	7f b3 97    	mov.w     [w15-18], w6
     cb8:	8f bb 97    	mov.w     [w15-16], w7
     cba:	08 00 be    	mov.d     w8, w0
     cbc:	0a 01 be    	mov.d     w10, w2
     cbe:	c0 fb 07    	rcall     0x440 <___subdf3> <.libm>
     cc0:	cf b3 97    	mov.w     [w15-24], w7
     cc2:	8c 85 43    	add.w     w7, w12, w11
     cc4:	0c 05 78    	mov.w     w12, w10
     cc6:	02 00 37    	bra       0xccc <.L99>

00000cc8 <.L100>:
     cc8:	8a 0f 57    	sub.w     w14, w10, [w15]
     cca:	21 00 36    	bra       LEU, 0xd0e <.L98>

00000ccc <.L99>:
     ccc:	60 22 b8    	mul.uu    w4, #0x0, w4
     cce:	06 00 20    	mov.w     #0x0, w6
     cd0:	47 02 24    	mov.w     #0x4024, w7
     cd2:	8a fa 07    	rcall     0x1e8 <___muldf3> <.libm>
     cd4:	00 02 be    	mov.d     w0, w4
     cd6:	02 03 be    	mov.d     w2, w6
     cd8:	d4 b7 9f    	mov.w     w4, [w15-22]
     cda:	e5 b7 9f    	mov.w     w5, [w15-20]
     cdc:	f6 b7 9f    	mov.w     w6, [w15-18]
     cde:	87 bf 9f    	mov.w     w7, [w15-16]
     ce0:	83 fb 07    	rcall     0x3e8 <___fixdfsi> <.libm>
     ce2:	00 04 be    	mov.d     w0, w8
     ce4:	af fb 07    	rcall     0x444 <___floatsidf> <.libm>
     ce6:	00 02 be    	mov.d     w0, w4
     ce8:	02 03 be    	mov.d     w2, w6
     cea:	5f b0 97    	mov.w     [w15-22], w0
     cec:	ef b0 97    	mov.w     [w15-20], w1
     cee:	7f b1 97    	mov.w     [w15-18], w2
     cf0:	8f b9 97    	mov.w     [w15-16], w3
     cf2:	a6 fb 07    	rcall     0x440 <___subdf3> <.libm>
     cf4:	05 c3 b3    	mov.b     #0x30, w5
     cf6:	85 5d 44    	add.b     w8, w5, [w11++]
     cf8:	0a 05 e8    	inc.w     w10, w10
     cfa:	0c 42 55    	sub.b     w10, w12, w4
     cfc:	8d 4f 52    	sub.b     w4, w13, [w15]
     cfe:	e4 ff 39    	bra       NC, 0xcc8 <.L100>
     d00:	01 00 37    	bra       0xd04 <.L97>

00000d02 <.L103>:
     d02:	0c 05 78    	mov.w     w12, w10

00000d04 <.L97>:
     d04:	8a 0f 57    	sub.w     w14, w10, [w15]
     d06:	03 00 36    	bra       LEU, 0xd0e <.L98>
     d08:	00 40 eb    	clr.b     w0
     d0a:	4f b3 97    	mov.w     [w15-24], w6
     d0c:	00 73 7d    	mov.b     w0, [w6+w10]

00000d0e <.L98>:
     d0e:	4f b0 97    	mov.w     [w15-24], w0
     d10:	4f 07 78    	mov.w     [--w15], w14
     d12:	4f 06 be    	mov.d     [--w15], w12
     d14:	4f 05 be    	mov.d     [--w15], w10
     d16:	4f 04 be    	mov.d     [--w15], w8
     d18:	8f 01 b1    	sub.w     #0x18, w15
     d1a:	00 00 06    	return    

00000d1c <_FC_CAL_Port_Out__x>:
     d1c:	01 01 61    	and.w     w2, w1, w2
     d1e:	81 80 ea    	com.w     w1, w1
     d20:	90 80 60    	and.w     w1, [w0], w1
     d22:	01 08 71    	ior.w     w2, w1, [w0]
     d24:	00 00 06    	return    

00000d26 <_FC_CAL_Port_Out_DDR__x>:
     d26:	02 82 ea    	com.w     w2, w4
     d28:	91 08 62    	and.w     w4, [w1], [w1]
     d2a:	02 81 61    	and.w     w3, w2, w2
     d2c:	10 02 62    	and.w     w4, [w0], w4
     d2e:	04 08 71    	ior.w     w2, w4, [w0]
     d30:	00 00 06    	return    

00000d32 <_FC_CAL_Port_In__x>:
     d32:	90 80 60    	and.w     w1, [w0], w1
     d34:	02 81 fb    	ze        w2, w2
     d36:	02 08 de    	lsr.w     w1, w2, w0
     d38:	00 00 06    	return    

00000d3a <_FC_CAL_Port_In_DDR__x>:
     d3a:	91 08 71    	ior.w     w2, [w1], [w1]
     d3c:	10 01 61    	and.w     w2, [w0], w2
     d3e:	03 80 fb    	ze        w3, w0
     d40:	00 10 de    	lsr.w     w2, w0, w0
     d42:	00 00 06    	return    

00000d44 <_Wdt_Delay_Ms>:
     d44:	88 9f be    	mov.d     w8, [w15++]
     d46:	80 44 78    	mov.b     w0, w9
     d48:	09 04 e0    	cp0.b     w9
     d4a:	08 00 32    	bra       Z, 0xd5c <.L110>
     d4c:	00 44 eb    	clr.b     w8

00000d4e <.L112>:
     d4e:	00 60 fe    	clrwdt    
     d50:	80 32 27    	mov.w     #0x7328, w0
     d52:	01 00 20    	mov.w     #0x0, w1
     d54:	f3 f9 07    	rcall     0x13c <___delay32> <.init>
     d56:	08 44 e8    	inc.b     w8, w8
     d58:	88 cf 54    	sub.b     w9, w8, [w15]
     d5a:	f9 ff 3e    	bra       GTU, 0xd4e <.L112>

00000d5c <.L110>:
     d5c:	4f 04 be    	mov.d     [--w15], w8
     d5e:	00 00 06    	return    

00000d60 <_Wdt_Delay_S>:
     d60:	88 9f be    	mov.d     w8, [w15++]
     d62:	8a 1f 78    	mov.w     w10, [w15++]
     d64:	00 45 78    	mov.b     w0, w10
     d66:	80 44 eb    	clr.b     w9
     d68:	0a 04 e0    	cp0.b     w10
     d6a:	0a 00 3a    	bra       NZ, 0xd80 <.L117>
     d6c:	0b 00 37    	bra       0xd84 <.L113>

00000d6e <.L116>:
     d6e:	10 c0 b3    	mov.b     #0x1, w0
     d70:	e9 ff 07    	rcall     0xd44 <_Wdt_Delay_Ms>
     d72:	08 04 e8    	inc.w     w8, w8
     d74:	70 3e 20    	mov.w     #0x3e7, w0
     d76:	80 0f 54    	sub.w     w8, w0, [w15]
     d78:	fa ff 3a    	bra       NZ, 0xd6e <.L116>
     d7a:	89 44 e8    	inc.b     w9, w9
     d7c:	89 4f 55    	sub.b     w10, w9, [w15]
     d7e:	02 00 36    	bra       LEU, 0xd84 <.L113>

00000d80 <.L117>:
     d80:	00 04 eb    	clr.w     w8
     d82:	f5 ff 37    	bra       0xd6e <.L116>

00000d84 <.L113>:
     d84:	4f 05 78    	mov.w     [--w15], w10
     d86:	4f 04 be    	mov.d     [--w15], w8
     d88:	00 00 06    	return    

00000d8a <_FCI_DELAYINT_US>:
     d8a:	88 1f 78    	mov.w     w8, [w15++]
     d8c:	00 04 78    	mov.w     w0, w8
     d8e:	f0 0f 20    	mov.w     #0xff, w0
     d90:	80 0f 54    	sub.w     w8, w0, [w15]
     d92:	07 00 36    	bra       LEU, 0xda2 <.L119>

00000d94 <.L120>:
     d94:	30 ce 21    	mov.w     #0x1ce3, w0
     d96:	01 00 20    	mov.w     #0x0, w1
     d98:	d1 f9 07    	rcall     0x13c <___delay32> <.init>
     d9a:	f8 0f b1    	sub.w     #0xff, w8
     d9c:	f0 0f 20    	mov.w     #0xff, w0
     d9e:	80 0f 54    	sub.w     w8, w0, [w15]
     da0:	f9 ff 3e    	bra       GTU, 0xd94 <.L120>

00000da2 <.L119>:
     da2:	08 00 e0    	cp0.w     w8
     da4:	03 00 32    	bra       Z, 0xdac <.L118>
     da6:	08 80 fb    	ze        w8, w0
     da8:	7d 00 b8    	mul.uu    w0, #0x1d, w0
     daa:	c8 f9 07    	rcall     0x13c <___delay32> <.init>

00000dac <.L118>:
     dac:	4f 04 78    	mov.w     [--w15], w8
     dae:	00 00 06    	return    

00000db0 <_FCI_DELAYINT_MS>:
     db0:	88 1f 78    	mov.w     w8, [w15++]
     db2:	00 04 78    	mov.w     w0, w8
     db4:	f0 0f 20    	mov.w     #0xff, w0
     db6:	80 0f 54    	sub.w     w8, w0, [w15]
     db8:	07 00 36    	bra       LEU, 0xdc8 <.L123>

00000dba <.L124>:
     dba:	80 4d 2b    	mov.w     #0xb4d8, w0
     dbc:	21 07 20    	mov.w     #0x72, w1
     dbe:	be f9 07    	rcall     0x13c <___delay32> <.init>
     dc0:	f8 0f b1    	sub.w     #0xff, w8
     dc2:	f0 0f 20    	mov.w     #0xff, w0
     dc4:	80 0f 54    	sub.w     w8, w0, [w15]
     dc6:	f9 ff 3e    	bra       GTU, 0xdba <.L124>

00000dc8 <.L123>:
     dc8:	08 00 e0    	cp0.w     w8
     dca:	04 00 32    	bra       Z, 0xdd4 <.L122>
     dcc:	08 84 fb    	ze        w8, w8
     dce:	80 32 27    	mov.w     #0x7328, w0
     dd0:	00 40 b8    	mul.uu    w8, w0, w0
     dd2:	b4 f9 07    	rcall     0x13c <___delay32> <.init>

00000dd4 <.L122>:
     dd4:	4f 04 78    	mov.w     [--w15], w8
     dd6:	00 00 06    	return    

00000dd8 <_FCI_DELAYINTWDT_MS>:
     dd8:	88 1f 78    	mov.w     w8, [w15++]
     dda:	00 04 78    	mov.w     w0, w8
     ddc:	f0 0f 20    	mov.w     #0xff, w0
     dde:	80 0f 54    	sub.w     w8, w0, [w15]
     de0:	06 00 36    	bra       LEU, 0xdee <.L127>

00000de2 <.L128>:
     de2:	00 c0 eb    	setm.b    w0
     de4:	af ff 07    	rcall     0xd44 <_Wdt_Delay_Ms>
     de6:	f8 0f b1    	sub.w     #0xff, w8
     de8:	f0 0f 20    	mov.w     #0xff, w0
     dea:	80 0f 54    	sub.w     w8, w0, [w15]
     dec:	fa ff 3e    	bra       GTU, 0xde2 <.L128>

00000dee <.L127>:
     dee:	08 00 e0    	cp0.w     w8
     df0:	02 00 32    	bra       Z, 0xdf6 <.L126>
     df2:	08 40 78    	mov.b     w8, w0
     df4:	a7 ff 07    	rcall     0xd44 <_Wdt_Delay_Ms>

00000df6 <.L126>:
     df6:	4f 04 78    	mov.w     [--w15], w8
     df8:	00 00 06    	return    

00000dfa <_FCI_DELAYINT_S>:
     dfa:	88 1f 78    	mov.w     w8, [w15++]
     dfc:	00 04 78    	mov.w     w0, w8
     dfe:	f0 0f 20    	mov.w     #0xff, w0
     e00:	80 0f 54    	sub.w     w8, w0, [w15]
     e02:	07 00 36    	bra       LEU, 0xe12 <.L131>

00000e04 <.L132>:
     e04:	00 bc 26    	mov.w     #0x6bc0, w0
     e06:	21 01 2c    	mov.w     #0xc012, w1
     e08:	99 f9 07    	rcall     0x13c <___delay32> <.init>
     e0a:	f8 0f b1    	sub.w     #0xff, w8
     e0c:	f0 0f 20    	mov.w     #0xff, w0
     e0e:	80 0f 54    	sub.w     w8, w0, [w15]
     e10:	f9 ff 3e    	bra       GTU, 0xe04 <.L132>

00000e12 <.L131>:
     e12:	08 00 e0    	cp0.w     w8
     e14:	08 00 32    	bra       Z, 0xe26 <.L130>
     e16:	08 80 fb    	ze        w8, w0
     e18:	80 00 eb    	clr.w     w1
     e1a:	12 1c 20    	mov.w     #0x1c1, w2
     e1c:	02 81 b9    	mul.ss    w0, w2, w2
     e1e:	04 44 2d    	mov.w     #0xd440, w4
     e20:	04 00 b8    	mul.uu    w0, w4, w0
     e22:	81 00 41    	add.w     w2, w1, w1
     e24:	8b f9 07    	rcall     0x13c <___delay32> <.init>

00000e26 <.L130>:
     e26:	4f 04 78    	mov.w     [--w15], w8
     e28:	00 00 06    	return    

00000e2a <_FCI_DELAYINTWDT_S>:
     e2a:	88 1f 78    	mov.w     w8, [w15++]
     e2c:	00 04 78    	mov.w     w0, w8
     e2e:	f0 0f 20    	mov.w     #0xff, w0
     e30:	80 0f 54    	sub.w     w8, w0, [w15]
     e32:	06 00 36    	bra       LEU, 0xe40 <.L135>

00000e34 <.L136>:
     e34:	00 c0 eb    	setm.b    w0
     e36:	94 ff 07    	rcall     0xd60 <_Wdt_Delay_S>
     e38:	f8 0f b1    	sub.w     #0xff, w8
     e3a:	f0 0f 20    	mov.w     #0xff, w0
     e3c:	80 0f 54    	sub.w     w8, w0, [w15]
     e3e:	fa ff 3e    	bra       GTU, 0xe34 <.L136>

00000e40 <.L135>:
     e40:	08 00 e0    	cp0.w     w8
     e42:	02 00 32    	bra       Z, 0xe48 <.L134>
     e44:	08 40 78    	mov.b     w8, w0
     e46:	8c ff 07    	rcall     0xd60 <_Wdt_Delay_S>

00000e48 <.L134>:
     e48:	4f 04 78    	mov.w     [--w15], w8
     e4a:	00 00 06    	return    

00000e4c <_FC_CAL_ADC_Enable>:
     e4c:	64 2c 20    	mov.w     #0x2c6, w4
     e4e:	24 42 88    	mov.w     w4, 0x844
     e50:	14 43 78    	mov.b     [w4], w6
     e52:	86 82 fb    	ze        w6, w5
     e54:	05 42 88    	mov.w     w5, 0x840
     e56:	00 80 fb    	ze        w0, w0
     e58:	15 00 20    	mov.w     #0x1, w5
     e5a:	80 2a dd    	sl.w      w5, w0, w5
     e5c:	05 4a 73    	ior.b     w6, w5, [w4]
     e5e:	a0 22 ef    	clr.w     0x2a0
     e60:	a2 22 ef    	clr.w     0x2a2
     e62:	a4 22 ef    	clr.w     0x2a4
     e64:	a6 22 ef    	clr.w     0x2a6
     e66:	85 82 ea    	com.w     w5, w5
     e68:	80 02 fd    	exch      w0, w5
     e6a:	a8 22 b6    	and.w     0x2a8
     e6c:	80 02 fd    	exch      w0, w5
     e6e:	6f 00 60    	and.w     w0, #0xf, w0
     e70:	30 15 88    	mov.w     w0, 0x2a6
     e72:	02 04 e0    	cp0.b     w2
     e74:	03 00 3a    	bra       NZ, 0xe7c <.L139>
     e76:	f0 ff 21    	mov.w     #0x1fff, w0
     e78:	a2 22 b6    	and.w     0x2a2
     e7a:	01 00 37    	bra       0xe7e <.L140>

00000e7c <.L139>:
     e7c:	a3 a2 a8    	bset.b    0x2a3, #0x5

00000e7e <.L140>:
     e7e:	a4 22 ef    	clr.w     0x2a4
     e80:	01 68 a3    	btst.z    w1, #0x6
     e82:	02 00 32    	bra       Z, 0xe88 <.L141>
     e84:	a4 e2 a8    	bset.b    0x2a4, #0x7
     e86:	02 00 37    	bra       0xe8c <.L142>

00000e88 <.L141>:
     e88:	f1 03 b2    	and.w     #0x3f, w1
     e8a:	21 15 88    	mov.w     w1, 0x2a4

00000e8c <.L142>:
     e8c:	a1 e2 a8    	bset.b    0x2a1, #0x7
     e8e:	a0 22 a8    	bset.b    0x2a0, #0x1
     e90:	03 80 fb    	ze        w3, w0
     e92:	7d 00 b8    	mul.uu    w0, #0x1d, w0
     e94:	53 f9 07    	rcall     0x13c <___delay32> <.init>
     e96:	a0 22 a9    	bclr.b    0x2a0, #0x1
     e98:	00 00 06    	return    

00000e9a <_FC_CAL_ADC_Sample>:
     e9a:	88 1f 78    	mov.w     w8, [w15++]

00000e9c <.L144>:
     e9c:	a0 02 ab    	btst.b    0x2a0, #0x0
     e9e:	fe ff 32    	bra       Z, 0xe9c <.L144>
     ea0:	00 04 e0    	cp0.b     w0
     ea2:	02 00 32    	bra       Z, 0xea8 <.L145>
     ea4:	08 14 80    	mov.w     0x280, w8
     ea6:	02 00 37    	bra       0xeac <.L146>

00000ea8 <.L145>:
     ea8:	08 14 80    	mov.w     0x280, w8
     eaa:	44 44 de    	lsr.w     w8, #0x4, w8

00000eac <.L146>:
     eac:	a0 22 a8    	bset.b    0x2a0, #0x1
     eae:	d0 01 20    	mov.w     #0x1d, w0
     eb0:	01 00 20    	mov.w     #0x0, w1
     eb2:	44 f9 07    	rcall     0x13c <___delay32> <.init>
     eb4:	a0 22 a9    	bclr.b    0x2a0, #0x1
     eb6:	08 00 78    	mov.w     w8, w0
     eb8:	4f 04 78    	mov.w     [--w15], w8
     eba:	00 00 06    	return    

00000ebc <_FC_CAL_ADC_Disable>:
     ebc:	20 42 80    	mov.w     0x844, w0
     ebe:	01 84 20    	mov.w     #0x840, w1
     ec0:	91 40 78    	mov.b     [w1], w1
     ec2:	01 48 78    	mov.b     w1, [w0]
     ec4:	a1 e2 a9    	bclr.b    0x2a1, #0x7
     ec6:	a8 a2 ef    	setm.w    0x2a8
     ec8:	00 00 06    	return    

00000eca <_FC_CAL_SPI_Master_Init_1>:
     eca:	de 62 a9    	bclr.b    0x2de, #0x3
     ecc:	e2 62 a8    	bset.b    0x2e2, #0x3
     ece:	de 42 a8    	bset.b    0x2de, #0x2
     ed0:	f0 fb 2f    	mov.w     #0xffbf, w0
     ed2:	de 22 b6    	and.w     0x2de
     ed4:	e2 22 b6    	and.w     0x2e2
     ed6:	b0 01 20    	mov.w     #0x1b, w0
     ed8:	10 11 88    	mov.w     w0, 0x222
     eda:	22 a2 a8    	bset.b    0x222, #0x5
     edc:	22 c2 a9    	bclr.b    0x222, #0x6
     ede:	23 02 a9    	bclr.b    0x223, #0x0
     ee0:	23 22 a9    	bclr.b    0x223, #0x1
     ee2:	20 c2 a9    	bclr.b    0x220, #0x6
     ee4:	21 e2 a8    	bset.b    0x221, #0x7
     ee6:	00 00 06    	return    

00000ee8 <_FC_CAL_SPI_Master_Uninit_1>:
     ee8:	21 e2 a9    	bclr.b    0x221, #0x7
     eea:	de 62 a8    	bset.b    0x2de, #0x3
     eec:	de 42 a8    	bset.b    0x2de, #0x2
     eee:	de c2 a8    	bset.b    0x2de, #0x6
     ef0:	00 00 06    	return    

00000ef2 <_FC_CAL_SPI_Master_Byte_1>:
     ef2:	21 11 80    	mov.w     0x224, w1
     ef4:	00 80 fb    	ze        w0, w0
     ef6:	20 11 88    	mov.w     w0, 0x224

00000ef8 <.L151>:
     ef8:	20 02 ab    	btst.b    0x220, #0x0
     efa:	fe ff 32    	bra       Z, 0xef8 <.L151>
     efc:	20 11 80    	mov.w     0x224, w0
     efe:	00 00 06    	return    

00000f00 <_FC_CAL_SPI_SetPrescaler_1>:
     f00:	58 e8 b7    	mov.b     WREG, 0x858
     f02:	00 04 e0    	cp0.b     w0
     f04:	03 00 3a    	bra       NZ, 0xf0c <.L153>
     f06:	b0 c1 b3    	mov.b     #0x1b, w0
     f08:	58 e8 b7    	mov.b     WREG, 0x858
     f0a:	48 00 37    	bra       0xf9c <.L154>

00000f0c <.L153>:
     f0c:	e1 4f 50    	sub.b     w0, #0x1, [w15]
     f0e:	03 00 3a    	bra       NZ, 0xf16 <.L155>
     f10:	e0 c1 b3    	mov.b     #0x1e, w0
     f12:	58 e8 b7    	mov.b     WREG, 0x858
     f14:	43 00 37    	bra       0xf9c <.L154>

00000f16 <.L155>:
     f16:	e2 4f 50    	sub.b     w0, #0x2, [w15]
     f18:	03 00 3a    	bra       NZ, 0xf20 <.L156>
     f1a:	b0 c0 b3    	mov.b     #0xb, w0
     f1c:	58 e8 b7    	mov.b     WREG, 0x858
     f1e:	3e 00 37    	bra       0xf9c <.L154>

00000f20 <.L156>:
     f20:	e3 4f 50    	sub.b     w0, #0x3, [w15]
     f22:	02 00 3a    	bra       NZ, 0xf28 <.L157>
     f24:	58 e8 b7    	mov.b     WREG, 0x858
     f26:	3a 00 37    	bra       0xf9c <.L154>

00000f28 <.L157>:
     f28:	e4 4f 50    	sub.b     w0, #0x4, [w15]
     f2a:	03 00 3a    	bra       NZ, 0xf32 <.L158>
     f2c:	60 c1 b3    	mov.b     #0x16, w0
     f2e:	58 e8 b7    	mov.b     WREG, 0x858
     f30:	35 00 37    	bra       0xf9c <.L154>

00000f32 <.L158>:
     f32:	e5 4f 50    	sub.b     w0, #0x5, [w15]
     f34:	03 00 3a    	bra       NZ, 0xf3c <.L159>
     f36:	d0 c1 b3    	mov.b     #0x1d, w0
     f38:	58 e8 b7    	mov.b     WREG, 0x858
     f3a:	30 00 37    	bra       0xf9c <.L154>

00000f3c <.L159>:
     f3c:	e6 4f 50    	sub.b     w0, #0x6, [w15]
     f3e:	03 00 3a    	bra       NZ, 0xf46 <.L160>
     f40:	e0 c0 b3    	mov.b     #0xe, w0
     f42:	58 e8 b7    	mov.b     WREG, 0x858
     f44:	2b 00 37    	bra       0xf9c <.L154>

00000f46 <.L160>:
     f46:	e7 4f 50    	sub.b     w0, #0x7, [w15]
     f48:	03 00 3a    	bra       NZ, 0xf50 <.L161>
     f4a:	a0 c0 b3    	mov.b     #0xa, w0
     f4c:	58 e8 b7    	mov.b     WREG, 0x858
     f4e:	26 00 37    	bra       0xf9c <.L154>

00000f50 <.L161>:
     f50:	e8 4f 50    	sub.b     w0, #0x8, [w15]
     f52:	03 00 3a    	bra       NZ, 0xf5a <.L162>
     f54:	60 c0 b3    	mov.b     #0x6, w0
     f56:	58 e8 b7    	mov.b     WREG, 0x858
     f58:	21 00 37    	bra       0xf9c <.L154>

00000f5a <.L162>:
     f5a:	e9 4f 50    	sub.b     w0, #0x9, [w15]
     f5c:	03 00 3a    	bra       NZ, 0xf64 <.L163>
     f5e:	90 c1 b3    	mov.b     #0x19, w0
     f60:	58 e8 b7    	mov.b     WREG, 0x858
     f62:	1c 00 37    	bra       0xf9c <.L154>

00000f64 <.L163>:
     f64:	ea 4f 50    	sub.b     w0, #0xa, [w15]
     f66:	03 00 3a    	bra       NZ, 0xf6e <.L164>
     f68:	50 c1 b3    	mov.b     #0x15, w0
     f6a:	58 e8 b7    	mov.b     WREG, 0x858
     f6c:	17 00 37    	bra       0xf9c <.L154>

00000f6e <.L164>:
     f6e:	eb 4f 50    	sub.b     w0, #0xb, [w15]
     f70:	03 00 3a    	bra       NZ, 0xf78 <.L165>
     f72:	c0 c1 b3    	mov.b     #0x1c, w0
     f74:	58 e8 b7    	mov.b     WREG, 0x858
     f76:	12 00 37    	bra       0xf9c <.L154>

00000f78 <.L165>:
     f78:	ec 4f 50    	sub.b     w0, #0xc, [w15]
     f7a:	03 00 3a    	bra       NZ, 0xf82 <.L166>
     f7c:	80 c1 b3    	mov.b     #0x18, w0
     f7e:	58 e8 b7    	mov.b     WREG, 0x858
     f80:	0d 00 37    	bra       0xf9c <.L154>

00000f82 <.L166>:
     f82:	ed 4f 50    	sub.b     w0, #0xd, [w15]
     f84:	03 00 3a    	bra       NZ, 0xf8c <.L167>
     f86:	40 c1 b3    	mov.b     #0x14, w0
     f88:	58 e8 b7    	mov.b     WREG, 0x858
     f8a:	08 00 37    	bra       0xf9c <.L154>

00000f8c <.L167>:
     f8c:	ee 4f 50    	sub.b     w0, #0xe, [w15]
     f8e:	03 00 3a    	bra       NZ, 0xf96 <.L168>
     f90:	00 c1 b3    	mov.b     #0x10, w0
     f92:	58 e8 b7    	mov.b     WREG, 0x858
     f94:	03 00 37    	bra       0xf9c <.L154>

00000f96 <.L168>:
     f96:	ef 4f 50    	sub.b     w0, #0xf, [w15]
     f98:	01 00 3a    	bra       NZ, 0xf9c <.L154>
     f9a:	58 68 ef    	clr.b     0x858

00000f9c <.L154>:
     f9c:	21 e2 a9    	bclr.b    0x221, #0x7
     f9e:	00 fe 2f    	mov.w     #0xffe0, w0
     fa0:	22 22 b6    	and.w     0x222
     fa2:	58 c8 bf    	mov.b     0x858, WREG
     fa4:	7f 00 60    	and.w     w0, #0x1f, w0
     fa6:	22 22 b7    	ior.w     0x222
     fa8:	21 e2 a8    	bset.b    0x221, #0x7
     faa:	00 00 06    	return    

00000fac <_FC_CAL_SPI_Slave_Init_1>:
     fac:	00 00 06    	return    

00000fae <_FC_CAL_SPI_Slave_Uninit_1>:
     fae:	00 00 06    	return    

00000fb0 <_FC_CAL_SPI_Slave_SetTxData_1>:
     fb0:	00 00 06    	return    

00000fb2 <_FC_CAL_SPI_Slave_GetRxData_1>:
     fb2:	00 00 05    	retlw.w   #0x0, w0

00000fb4 <_FCD_01531_cal_spi__Prv_TextConsole>:
     fb4:	00 00 06    	return    

00000fb6 <_FCD_06c41_SPI_Master1__SendString>:
     fb6:	88 9f be    	mov.d     w8, [w15++]
     fb8:	8a 1f 78    	mov.w     w10, [w15++]
     fba:	00 05 78    	mov.w     w0, w10
     fbc:	0a 00 78    	mov.w     w10, w0
     fbe:	72 fc 07    	rcall     0x8a4 <_FCI_GETLENGTH> <.text>
     fc0:	80 44 78    	mov.b     w0, w9
     fc2:	09 04 e0    	cp0.b     w9
     fc4:	06 00 32    	bra       Z, 0xfd2 <.L174>
     fc6:	0a 04 78    	mov.w     w10, w8

00000fc8 <.L176>:
     fc8:	38 40 78    	mov.b     [w8++], w0
     fca:	93 ff 07    	rcall     0xef2 <_FC_CAL_SPI_Master_Byte_1>
     fcc:	0a 40 54    	sub.b     w8, w10, w0
     fce:	80 cf 54    	sub.b     w9, w0, [w15]
     fd0:	fb ff 3e    	bra       GTU, 0xfc8 <.L176>

00000fd2 <.L174>:
     fd2:	4f 05 78    	mov.w     [--w15], w10
     fd4:	4f 04 be    	mov.d     [--w15], w8
     fd6:	00 00 06    	return    

00000fd8 <_FCD_06c41_SPI_Master1__GetString>:
     fd8:	02 00 fa    	lnk       #0x2
     fda:	88 9f be    	mov.d     w8, [w15++]
     fdc:	8a 1f 78    	mov.w     w10, [w15++]
     fde:	80 04 78    	mov.w     w0, w9
     fe0:	01 05 78    	mov.w     w1, w10
     fe2:	02 44 78    	mov.b     w2, w8
     fe4:	83 ff 9f    	mov.b     w3, [w15-8]
     fe6:	8a 01 78    	mov.w     w10, w3
     fe8:	09 01 78    	mov.w     w9, w2
     fea:	11 00 20    	mov.w     #0x1, w1
     fec:	80 7c 28    	mov.w     #0x87c8, w0
     fee:	dc fd 07    	rcall     0xba8 <_FCI_SCOPY>
     ff0:	08 04 e0    	cp0.b     w8
     ff2:	0c 00 32    	bra       Z, 0x100c <.L177>

00000ff4 <.L179>:
     ff4:	50 c5 b3    	mov.b     #0x55, w0
     ff6:	7d ff 07    	rcall     0xef2 <_FC_CAL_SPI_Master_Byte_1>
     ff8:	80 ff 9f    	mov.b     w0, [w15-8]
     ffa:	45 01 20    	mov.w     #0x14, w5
     ffc:	09 02 78    	mov.w     w9, w4
     ffe:	13 00 20    	mov.w     #0x1, w3
    1000:	68 81 57    	sub.w     w15, #0x8, w2
    1002:	8a 00 78    	mov.w     w10, w1
    1004:	09 00 78    	mov.w     w9, w0
    1006:	4b fd 07    	rcall     0xa9e <_FCI_SHEAD>
    1008:	08 44 e9    	dec.b     w8, w8
    100a:	f4 ff 3a    	bra       NZ, 0xff4 <.L179>

0000100c <.L177>:
    100c:	4f 05 78    	mov.w     [--w15], w10
    100e:	4f 04 be    	mov.d     [--w15], w8
    1010:	00 80 fa    	ulnk      
    1012:	00 00 06    	return    

00001014 <_FCD_06c41_SPI_Master1__SendChar>:
    1014:	6e ff 37    	bra       0xef2 <_FC_CAL_SPI_Master_Byte_1>

00001016 <_FCD_06c41_SPI_Master1__GetChar>:
    1016:	50 c5 b3    	mov.b     #0x55, w0
    1018:	6c ff 37    	bra       0xef2 <_FC_CAL_SPI_Master_Byte_1>

0000101a <_FCD_06c41_SPI_Master1__UnInitialise>:
    101a:	66 ff 37    	bra       0xee8 <_FC_CAL_SPI_Master_Uninit_1>

0000101c <_FCD_06c41_SPI_Master1__Initialise>:
    101c:	56 ff 37    	bra       0xeca <_FC_CAL_SPI_Master_Init_1>

0000101e <_FCD_04071_LCD__RawSend>:
    101e:	88 9f be    	mov.d     w8, [w15++]
    1020:	8a 1f 78    	mov.w     w10, [w15++]
    1022:	80 44 78    	mov.b     w0, w9
    1024:	01 45 78    	mov.b     w1, w10
    1026:	e2 ff 2f    	mov.w     #0xfffe, w2
    1028:	20 2d 20    	mov.w     #0x2d2, w0
    102a:	10 08 61    	and.w     w2, [w0], [w0]
    102c:	b0 16 80    	mov.w     0x2d6, w0
    102e:	02 00 60    	and.w     w0, w2, w0
    1030:	a0 16 88    	mov.w     w0, 0x2d4
    1032:	d1 ff 2f    	mov.w     #0xfffd, w1
    1034:	20 2d 20    	mov.w     #0x2d2, w0
    1036:	10 88 60    	and.w     w1, [w0], [w0]
    1038:	b0 16 80    	mov.w     0x2d6, w0
    103a:	01 00 60    	and.w     w0, w1, w0
    103c:	a0 16 88    	mov.w     w0, 0x2d4
    103e:	b1 ff 2f    	mov.w     #0xfffb, w1
    1040:	20 2d 20    	mov.w     #0x2d2, w0
    1042:	10 88 60    	and.w     w1, [w0], [w0]
    1044:	b0 16 80    	mov.w     0x2d6, w0
    1046:	01 00 60    	and.w     w0, w1, w0
    1048:	a0 16 88    	mov.w     w0, 0x2d4
    104a:	71 ff 2f    	mov.w     #0xfff7, w1
    104c:	20 2d 20    	mov.w     #0x2d2, w0
    104e:	10 88 60    	and.w     w1, [w0], [w0]
    1050:	b0 16 80    	mov.w     0x2d6, w0
    1052:	01 00 60    	and.w     w0, w1, w0
    1054:	a0 16 88    	mov.w     w0, 0x2d4
    1056:	f1 ef 2f    	mov.w     #0xfeff, w1
    1058:	20 2d 20    	mov.w     #0x2d2, w0
    105a:	10 88 60    	and.w     w1, [w0], [w0]
    105c:	b0 16 80    	mov.w     0x2d6, w0
    105e:	01 00 60    	and.w     w0, w1, w0
    1060:	a0 16 88    	mov.w     w0, 0x2d4
    1062:	f1 df 2f    	mov.w     #0xfdff, w1
    1064:	20 2d 20    	mov.w     #0x2d2, w0
    1066:	10 88 60    	and.w     w1, [w0], [w0]
    1068:	b0 16 80    	mov.w     0x2d6, w0
    106a:	01 00 60    	and.w     w0, w1, w0
    106c:	a0 16 88    	mov.w     w0, 0x2d4
    106e:	89 80 fb    	ze        w9, w1
    1070:	c4 08 de    	lsr.w     w1, #0x4, w1
    1072:	20 2d 20    	mov.w     #0x2d2, w0
    1074:	10 08 61    	and.w     w2, [w0], [w0]
    1076:	01 08 a3    	btst.z    w1, #0x0
    1078:	05 00 32    	bra       Z, 0x1084 <.L185>
    107a:	b0 16 80    	mov.w     0x2d6, w0
    107c:	00 00 a0    	bset.w    w0, #0x0
    107e:	a0 16 88    	mov.w     w0, 0x2d4
    1080:	a0 16 80    	mov.w     0x2d4, w0
    1082:	05 00 37    	bra       0x108e <.L186>

00001084 <.L185>:
    1084:	e2 ff 2f    	mov.w     #0xfffe, w2
    1086:	b0 16 80    	mov.w     0x2d6, w0
    1088:	02 00 60    	and.w     w0, w2, w0
    108a:	a0 16 88    	mov.w     w0, 0x2d4
    108c:	a0 16 80    	mov.w     0x2d4, w0

0000108e <.L186>:
    108e:	01 80 fb    	ze        w1, w0
    1090:	00 00 d1    	lsr.w     w0, w0
    1092:	d2 22 a9    	bclr.b    0x2d2, #0x1
    1094:	00 08 a3    	btst.z    w0, #0x0
    1096:	05 00 32    	bra       Z, 0x10a2 <.L187>
    1098:	b1 16 80    	mov.w     0x2d6, w1
    109a:	01 10 a0    	bset.w    w1, #0x1
    109c:	a1 16 88    	mov.w     w1, 0x2d4
    109e:	a1 16 80    	mov.w     0x2d4, w1
    10a0:	05 00 37    	bra       0x10ac <.L188>

000010a2 <.L187>:
    10a2:	d1 ff 2f    	mov.w     #0xfffd, w1
    10a4:	b2 16 80    	mov.w     0x2d6, w2
    10a6:	01 01 61    	and.w     w2, w1, w2
    10a8:	a2 16 88    	mov.w     w2, 0x2d4
    10aa:	a1 16 80    	mov.w     0x2d4, w1

000010ac <.L188>:
    10ac:	00 80 fb    	ze        w0, w0
    10ae:	00 00 d1    	lsr.w     w0, w0
    10b0:	d2 42 a9    	bclr.b    0x2d2, #0x2
    10b2:	00 08 a3    	btst.z    w0, #0x0
    10b4:	05 00 32    	bra       Z, 0x10c0 <.L189>
    10b6:	b1 16 80    	mov.w     0x2d6, w1
    10b8:	01 20 a0    	bset.w    w1, #0x2
    10ba:	a1 16 88    	mov.w     w1, 0x2d4
    10bc:	a1 16 80    	mov.w     0x2d4, w1
    10be:	05 00 37    	bra       0x10ca <.L190>

000010c0 <.L189>:
    10c0:	b1 ff 2f    	mov.w     #0xfffb, w1
    10c2:	b2 16 80    	mov.w     0x2d6, w2
    10c4:	01 01 61    	and.w     w2, w1, w2
    10c6:	a2 16 88    	mov.w     w2, 0x2d4
    10c8:	a1 16 80    	mov.w     0x2d4, w1

000010ca <.L190>:
    10ca:	d2 62 a9    	bclr.b    0x2d2, #0x3
    10cc:	00 18 a3    	btst.z    w0, #0x1
    10ce:	05 00 32    	bra       Z, 0x10da <.L191>
    10d0:	b0 16 80    	mov.w     0x2d6, w0
    10d2:	00 30 a0    	bset.w    w0, #0x3
    10d4:	a0 16 88    	mov.w     w0, 0x2d4
    10d6:	a0 16 80    	mov.w     0x2d4, w0
    10d8:	05 00 37    	bra       0x10e4 <.L192>

000010da <.L191>:
    10da:	71 ff 2f    	mov.w     #0xfff7, w1
    10dc:	b0 16 80    	mov.w     0x2d6, w0
    10de:	01 00 60    	and.w     w0, w1, w0
    10e0:	a0 16 88    	mov.w     w0, 0x2d4
    10e2:	a0 16 80    	mov.w     0x2d4, w0

000010e4 <.L192>:
    10e4:	0a 04 e0    	cp0.b     w10
    10e6:	04 00 32    	bra       Z, 0x10f0 <.L193>
    10e8:	d3 02 a9    	bclr.b    0x2d3, #0x0
    10ea:	b0 16 80    	mov.w     0x2d6, w0
    10ec:	00 80 a0    	bset.w    w0, #0x8
    10ee:	a0 16 88    	mov.w     w0, 0x2d4

000010f0 <.L193>:
    10f0:	40 b5 20    	mov.w     #0xb54, w0
    10f2:	01 00 20    	mov.w     #0x0, w1
    10f4:	23 f8 07    	rcall     0x13c <___delay32> <.init>
    10f6:	f8 df 2f    	mov.w     #0xfdff, w8
    10f8:	22 2d 20    	mov.w     #0x2d2, w2
    10fa:	12 09 64    	and.w     w8, [w2], [w2]
    10fc:	b0 16 80    	mov.w     0x2d6, w0
    10fe:	00 90 a0    	bset.w    w0, #0x9
    1100:	a0 16 88    	mov.w     w0, 0x2d4
    1102:	40 b5 20    	mov.w     #0xb54, w0
    1104:	01 00 20    	mov.w     #0x0, w1
    1106:	1a f8 07    	rcall     0x13c <___delay32> <.init>
    1108:	20 2d 20    	mov.w     #0x2d2, w0
    110a:	10 08 64    	and.w     w8, [w0], [w0]
    110c:	b2 16 80    	mov.w     0x2d6, w2
    110e:	08 01 61    	and.w     w2, w8, w2
    1110:	a2 16 88    	mov.w     w2, 0x2d4
    1112:	40 b5 20    	mov.w     #0xb54, w0
    1114:	01 00 20    	mov.w     #0x0, w1
    1116:	12 f8 07    	rcall     0x13c <___delay32> <.init>
    1118:	e2 ff 2f    	mov.w     #0xfffe, w2
    111a:	20 2d 20    	mov.w     #0x2d2, w0
    111c:	10 08 61    	and.w     w2, [w0], [w0]
    111e:	b0 16 80    	mov.w     0x2d6, w0
    1120:	02 00 60    	and.w     w0, w2, w0
    1122:	a0 16 88    	mov.w     w0, 0x2d4
    1124:	d1 ff 2f    	mov.w     #0xfffd, w1
    1126:	20 2d 20    	mov.w     #0x2d2, w0
    1128:	10 88 60    	and.w     w1, [w0], [w0]
    112a:	b0 16 80    	mov.w     0x2d6, w0
    112c:	01 00 60    	and.w     w0, w1, w0
    112e:	a0 16 88    	mov.w     w0, 0x2d4
    1130:	b1 ff 2f    	mov.w     #0xfffb, w1
    1132:	20 2d 20    	mov.w     #0x2d2, w0
    1134:	10 88 60    	and.w     w1, [w0], [w0]
    1136:	b0 16 80    	mov.w     0x2d6, w0
    1138:	01 00 60    	and.w     w0, w1, w0
    113a:	a0 16 88    	mov.w     w0, 0x2d4
    113c:	71 ff 2f    	mov.w     #0xfff7, w1
    113e:	20 2d 20    	mov.w     #0x2d2, w0
    1140:	10 88 60    	and.w     w1, [w0], [w0]
    1142:	b0 16 80    	mov.w     0x2d6, w0
    1144:	01 00 60    	and.w     w0, w1, w0
    1146:	a0 16 88    	mov.w     w0, 0x2d4
    1148:	f1 ef 2f    	mov.w     #0xfeff, w1
    114a:	20 2d 20    	mov.w     #0x2d2, w0
    114c:	10 88 60    	and.w     w1, [w0], [w0]
    114e:	b0 16 80    	mov.w     0x2d6, w0
    1150:	01 00 60    	and.w     w0, w1, w0
    1152:	a0 16 88    	mov.w     w0, 0x2d4
    1154:	ef c4 64    	and.b     w9, #0xf, w9
    1156:	20 2d 20    	mov.w     #0x2d2, w0
    1158:	10 08 61    	and.w     w2, [w0], [w0]
    115a:	09 08 a3    	btst.z    w9, #0x0
    115c:	05 00 32    	bra       Z, 0x1168 <.L194>
    115e:	b0 16 80    	mov.w     0x2d6, w0
    1160:	00 00 a0    	bset.w    w0, #0x0
    1162:	a0 16 88    	mov.w     w0, 0x2d4
    1164:	a0 16 80    	mov.w     0x2d4, w0
    1166:	05 00 37    	bra       0x1172 <.L195>

00001168 <.L194>:
    1168:	e1 ff 2f    	mov.w     #0xfffe, w1
    116a:	b2 16 80    	mov.w     0x2d6, w2
    116c:	01 01 61    	and.w     w2, w1, w2
    116e:	a2 16 88    	mov.w     w2, 0x2d4
    1170:	a0 16 80    	mov.w     0x2d4, w0

00001172 <.L195>:
    1172:	89 84 fb    	ze        w9, w9
    1174:	09 00 d1    	lsr.w     w9, w0
    1176:	d2 22 a9    	bclr.b    0x2d2, #0x1
    1178:	00 08 a3    	btst.z    w0, #0x0
    117a:	05 00 32    	bra       Z, 0x1186 <.L196>
    117c:	b1 16 80    	mov.w     0x2d6, w1
    117e:	01 10 a0    	bset.w    w1, #0x1
    1180:	a1 16 88    	mov.w     w1, 0x2d4
    1182:	a1 16 80    	mov.w     0x2d4, w1
    1184:	05 00 37    	bra       0x1190 <.L197>

00001186 <.L196>:
    1186:	d1 ff 2f    	mov.w     #0xfffd, w1
    1188:	b2 16 80    	mov.w     0x2d6, w2
    118a:	01 01 61    	and.w     w2, w1, w2
    118c:	a2 16 88    	mov.w     w2, 0x2d4
    118e:	a1 16 80    	mov.w     0x2d4, w1

00001190 <.L197>:
    1190:	00 80 fb    	ze        w0, w0
    1192:	00 00 d1    	lsr.w     w0, w0
    1194:	d2 42 a9    	bclr.b    0x2d2, #0x2
    1196:	00 08 a3    	btst.z    w0, #0x0
    1198:	05 00 32    	bra       Z, 0x11a4 <.L198>
    119a:	b1 16 80    	mov.w     0x2d6, w1
    119c:	01 20 a0    	bset.w    w1, #0x2
    119e:	a1 16 88    	mov.w     w1, 0x2d4
    11a0:	a1 16 80    	mov.w     0x2d4, w1
    11a2:	05 00 37    	bra       0x11ae <.L199>

000011a4 <.L198>:
    11a4:	b1 ff 2f    	mov.w     #0xfffb, w1
    11a6:	b2 16 80    	mov.w     0x2d6, w2
    11a8:	01 01 61    	and.w     w2, w1, w2
    11aa:	a2 16 88    	mov.w     w2, 0x2d4
    11ac:	a1 16 80    	mov.w     0x2d4, w1

000011ae <.L199>:
    11ae:	d2 62 a9    	bclr.b    0x2d2, #0x3
    11b0:	00 18 a3    	btst.z    w0, #0x1
    11b2:	05 00 32    	bra       Z, 0x11be <.L200>
    11b4:	b0 16 80    	mov.w     0x2d6, w0
    11b6:	00 30 a0    	bset.w    w0, #0x3
    11b8:	a0 16 88    	mov.w     w0, 0x2d4
    11ba:	a0 16 80    	mov.w     0x2d4, w0
    11bc:	05 00 37    	bra       0x11c8 <.L201>

000011be <.L200>:
    11be:	71 ff 2f    	mov.w     #0xfff7, w1
    11c0:	b0 16 80    	mov.w     0x2d6, w0
    11c2:	01 00 60    	and.w     w0, w1, w0
    11c4:	a0 16 88    	mov.w     w0, 0x2d4
    11c6:	a0 16 80    	mov.w     0x2d4, w0

000011c8 <.L201>:
    11c8:	0a 04 e0    	cp0.b     w10
    11ca:	04 00 32    	bra       Z, 0x11d4 <.L202>
    11cc:	d3 02 a9    	bclr.b    0x2d3, #0x0
    11ce:	b0 16 80    	mov.w     0x2d6, w0
    11d0:	00 80 a0    	bset.w    w0, #0x8
    11d2:	a0 16 88    	mov.w     w0, 0x2d4

000011d4 <.L202>:
    11d4:	40 b5 20    	mov.w     #0xb54, w0
    11d6:	01 00 20    	mov.w     #0x0, w1
    11d8:	b1 f7 07    	rcall     0x13c <___delay32> <.init>
    11da:	f8 df 2f    	mov.w     #0xfdff, w8
    11dc:	22 2d 20    	mov.w     #0x2d2, w2
    11de:	12 09 64    	and.w     w8, [w2], [w2]
    11e0:	b0 16 80    	mov.w     0x2d6, w0
    11e2:	00 90 a0    	bset.w    w0, #0x9
    11e4:	a0 16 88    	mov.w     w0, 0x2d4
    11e6:	40 b5 20    	mov.w     #0xb54, w0
    11e8:	01 00 20    	mov.w     #0x0, w1
    11ea:	a8 f7 07    	rcall     0x13c <___delay32> <.init>
    11ec:	20 2d 20    	mov.w     #0x2d2, w0
    11ee:	10 08 64    	and.w     w8, [w0], [w0]
    11f0:	b2 16 80    	mov.w     0x2d6, w2
    11f2:	08 01 61    	and.w     w2, w8, w2
    11f4:	a2 16 88    	mov.w     w2, 0x2d4
    11f6:	40 b5 20    	mov.w     #0xb54, w0
    11f8:	01 00 20    	mov.w     #0x0, w1
    11fa:	a0 f7 07    	rcall     0x13c <___delay32> <.init>
    11fc:	4f 05 78    	mov.w     [--w15], w10
    11fe:	4f 04 be    	mov.d     [--w15], w8
    1200:	00 00 06    	return    

00001202 <_FCD_04071_LCD__ScrollDisplay>:
    1202:	88 9f be    	mov.d     w8, [w15++]
    1204:	00 44 78    	mov.b     w0, w8
    1206:	c9 c1 b3    	mov.b     #0x1c, w9
    1208:	01 04 e0    	cp0.b     w1
    120a:	01 00 3a    	bra       NZ, 0x120e <.L204>
    120c:	89 c1 b3    	mov.b     #0x18, w9

0000120e <.L204>:
    120e:	08 04 e0    	cp0.b     w8
    1210:	05 00 32    	bra       Z, 0x121c <.L203>

00001212 <.L206>:
    1212:	80 40 eb    	clr.b     w1
    1214:	09 40 78    	mov.b     w9, w0
    1216:	03 ff 07    	rcall     0x101e <_FCD_04071_LCD__RawSend>
    1218:	08 44 e9    	dec.b     w8, w8
    121a:	fb ff 3a    	bra       NZ, 0x1212 <.L206>

0000121c <.L203>:
    121c:	4f 04 be    	mov.d     [--w15], w8
    121e:	00 00 06    	return    

00001220 <_FCD_04071_LCD__Command>:
    1220:	80 40 eb    	clr.b     w1
    1222:	fd fe 07    	rcall     0x101e <_FCD_04071_LCD__RawSend>
    1224:	00 65 2e    	mov.w     #0xe650, w0
    1226:	01 00 20    	mov.w     #0x0, w1
    1228:	89 f7 37    	bra       0x13c <___delay32> <.init>

0000122a <_FCD_04071_LCD__Cursor>:
    122a:	02 cc b3    	mov.b     #0xc0, w2
    122c:	01 04 e0    	cp0.b     w1
    122e:	01 00 3a    	bra       NZ, 0x1232 <.L210>
    1230:	02 c8 b3    	mov.b     #0x80, w2

00001232 <.L210>:
    1232:	00 40 41    	add.b     w2, w0, w0
    1234:	80 40 eb    	clr.b     w1
    1236:	f3 fe 07    	rcall     0x101e <_FCD_04071_LCD__RawSend>
    1238:	00 65 2e    	mov.w     #0xe650, w0
    123a:	01 00 20    	mov.w     #0x0, w1
    123c:	7f f7 37    	bra       0x13c <___delay32> <.init>

0000123e <_FCD_04071_LCD__ClearLine>:
    123e:	88 9f be    	mov.d     w8, [w15++]
    1240:	80 44 78    	mov.b     w0, w9
    1242:	e1 cf 54    	sub.b     w9, #0x1, [w15]
    1244:	0d 00 3e    	bra       GTU, 0x1260 <.L212>
    1246:	89 40 78    	mov.b     w9, w1
    1248:	00 40 eb    	clr.b     w0
    124a:	ef ff 07    	rcall     0x122a <_FCD_04071_LCD__Cursor>
    124c:	00 44 eb    	clr.b     w8

0000124e <.L214>:
    124e:	11 c0 b3    	mov.b     #0x1, w1
    1250:	00 c2 b3    	mov.b     #0x20, w0
    1252:	e5 fe 07    	rcall     0x101e <_FCD_04071_LCD__RawSend>
    1254:	08 44 e8    	inc.b     w8, w8
    1256:	f0 4f 54    	sub.b     w8, #0x10, [w15]
    1258:	fa ff 3a    	bra       NZ, 0x124e <.L214>
    125a:	89 40 78    	mov.b     w9, w1
    125c:	00 40 eb    	clr.b     w0
    125e:	e5 ff 07    	rcall     0x122a <_FCD_04071_LCD__Cursor>

00001260 <.L212>:
    1260:	4f 04 be    	mov.d     [--w15], w8
    1262:	00 00 06    	return    

00001264 <_FCD_04071_LCD__PrintAscii>:
    1264:	11 c0 b3    	mov.b     #0x1, w1
    1266:	db fe 37    	bra       0x101e <_FCD_04071_LCD__RawSend>

00001268 <_FCD_04071_LCD__PrintString>:
    1268:	88 9f be    	mov.d     w8, [w15++]
    126a:	8a 1f 78    	mov.w     w10, [w15++]
    126c:	00 05 78    	mov.w     w0, w10
    126e:	0a 00 78    	mov.w     w10, w0
    1270:	19 fb 07    	rcall     0x8a4 <_FCI_GETLENGTH> <.text>
    1272:	80 44 78    	mov.b     w0, w9
    1274:	09 04 e0    	cp0.b     w9
    1276:	07 00 32    	bra       Z, 0x1286 <.L216>
    1278:	0a 04 78    	mov.w     w10, w8

0000127a <.L218>:
    127a:	38 40 78    	mov.b     [w8++], w0
    127c:	11 c0 b3    	mov.b     #0x1, w1
    127e:	cf fe 07    	rcall     0x101e <_FCD_04071_LCD__RawSend>
    1280:	0a 40 54    	sub.b     w8, w10, w0
    1282:	80 cf 54    	sub.b     w9, w0, [w15]
    1284:	fa ff 3e    	bra       GTU, 0x127a <.L218>

00001286 <.L216>:
    1286:	4f 05 78    	mov.w     [--w15], w10
    1288:	4f 04 be    	mov.d     [--w15], w8
    128a:	00 00 06    	return    

0000128c <_FCD_04071_LCD__PrintFormattedNumber>:
    128c:	10 00 fa    	lnk       #0x10
    128e:	02 04 e0    	cp0.b     w2
    1290:	04 00 32    	bra       Z, 0x129a <.L220>
    1292:	f3 00 20    	mov.w     #0xf, w3
    1294:	70 81 57    	sub.w     w15, #0x10, w2
    1296:	6b fb 07    	rcall     0x96e <_FCI_TOSTRU32>
    1298:	03 00 37    	bra       0x12a0 <.L221>

0000129a <.L220>:
    129a:	f3 00 20    	mov.w     #0xf, w3
    129c:	70 81 57    	sub.w     w15, #0x10, w2
    129e:	0f fb 07    	rcall     0x8be <_FCI_TOSTRS32>

000012a0 <.L221>:
    12a0:	f1 00 20    	mov.w     #0xf, w1
    12a2:	70 80 57    	sub.w     w15, #0x10, w0
    12a4:	e1 ff 07    	rcall     0x1268 <_FCD_04071_LCD__PrintString>
    12a6:	00 80 fa    	ulnk      
    12a8:	00 00 06    	return    

000012aa <_FCD_04071_LCD__PrintNumber>:
    12aa:	0a 00 fa    	lnk       #0xa
    12ac:	cf 80 de    	asr.w     w0, #0xf, w1
    12ae:	a3 00 20    	mov.w     #0xa, w3
    12b0:	6a 81 57    	sub.w     w15, #0xa, w2
    12b2:	9e fb 07    	rcall     0x9f0 <_FCI_TOSTRING>
    12b4:	a1 00 20    	mov.w     #0xa, w1
    12b6:	6a 80 57    	sub.w     w15, #0xa, w0
    12b8:	d7 ff 07    	rcall     0x1268 <_FCD_04071_LCD__PrintString>
    12ba:	00 80 fa    	ulnk      
    12bc:	00 00 06    	return    

000012be <_FCD_04071_LCD__Clear>:
    12be:	80 40 eb    	clr.b     w1
    12c0:	10 c0 b3    	mov.b     #0x1, w0
    12c2:	ad fe 07    	rcall     0x101e <_FCD_04071_LCD__RawSend>
    12c4:	00 65 2e    	mov.w     #0xe650, w0
    12c6:	01 00 20    	mov.w     #0x0, w1
    12c8:	39 f7 07    	rcall     0x13c <___delay32> <.init>
    12ca:	80 40 eb    	clr.b     w1
    12cc:	20 c0 b3    	mov.b     #0x2, w0
    12ce:	a7 fe 07    	rcall     0x101e <_FCD_04071_LCD__RawSend>
    12d0:	00 65 2e    	mov.w     #0xe650, w0
    12d2:	01 00 20    	mov.w     #0x0, w1
    12d4:	33 f7 37    	bra       0x13c <___delay32> <.init>

000012d6 <_FCD_04071_LCD__RAMWrite>:
    12d6:	8f 87 e8    	inc2.w    w15, w15
    12d8:	88 9f be    	mov.d     w8, [w15++]
    12da:	8a 9f be    	mov.d     w10, [w15++]
    12dc:	8c 9f be    	mov.d     w12, [w15++]
    12de:	8e 1f 78    	mov.w     w14, [w15++]
    12e0:	01 44 78    	mov.b     w1, w8
    12e2:	82 44 78    	mov.b     w2, w9
    12e4:	03 45 78    	mov.b     w3, w10
    12e6:	84 45 78    	mov.b     w4, w11
    12e8:	05 46 78    	mov.b     w5, w12
    12ea:	86 46 78    	mov.b     w6, w13
    12ec:	07 47 78    	mov.b     w7, w14
    12ee:	31 00 20    	mov.w     #0x3, w1
    12f0:	01 00 dd    	sl.w      w0, w1, w0
    12f2:	00 44 b0    	add.b     #0x40, w0
    12f4:	80 40 eb    	clr.b     w1
    12f6:	93 fe 07    	rcall     0x101e <_FCD_04071_LCD__RawSend>
    12f8:	00 65 2e    	mov.w     #0xe650, w0
    12fa:	01 00 20    	mov.w     #0x0, w1
    12fc:	1f f7 07    	rcall     0x13c <___delay32> <.init>
    12fe:	11 c0 b3    	mov.b     #0x1, w1
    1300:	08 40 78    	mov.b     w8, w0
    1302:	8d fe 07    	rcall     0x101e <_FCD_04071_LCD__RawSend>
    1304:	11 c0 b3    	mov.b     #0x1, w1
    1306:	09 40 78    	mov.b     w9, w0
    1308:	8a fe 07    	rcall     0x101e <_FCD_04071_LCD__RawSend>
    130a:	11 c0 b3    	mov.b     #0x1, w1
    130c:	0a 40 78    	mov.b     w10, w0
    130e:	87 fe 07    	rcall     0x101e <_FCD_04071_LCD__RawSend>
    1310:	11 c0 b3    	mov.b     #0x1, w1
    1312:	0b 40 78    	mov.b     w11, w0
    1314:	84 fe 07    	rcall     0x101e <_FCD_04071_LCD__RawSend>
    1316:	11 c0 b3    	mov.b     #0x1, w1
    1318:	0c 40 78    	mov.b     w12, w0
    131a:	81 fe 07    	rcall     0x101e <_FCD_04071_LCD__RawSend>
    131c:	11 c0 b3    	mov.b     #0x1, w1
    131e:	0d 40 78    	mov.b     w13, w0
    1320:	7e fe 07    	rcall     0x101e <_FCD_04071_LCD__RawSend>
    1322:	11 c0 b3    	mov.b     #0x1, w1
    1324:	0e 40 78    	mov.b     w14, w0
    1326:	7b fe 07    	rcall     0x101e <_FCD_04071_LCD__RawSend>
    1328:	11 c0 b3    	mov.b     #0x1, w1
    132a:	2f e8 97    	mov.b     [w15-22], w0
    132c:	78 fe 07    	rcall     0x101e <_FCD_04071_LCD__RawSend>
    132e:	c7 ff 07    	rcall     0x12be <_FCD_04071_LCD__Clear>
    1330:	4f 07 78    	mov.w     [--w15], w14
    1332:	4f 06 be    	mov.d     [--w15], w12
    1334:	4f 05 be    	mov.d     [--w15], w10
    1336:	4f 04 be    	mov.d     [--w15], w8
    1338:	2f 00 b1    	sub.w     #0x2, w15
    133a:	00 00 06    	return    

0000133c <_FCD_04071_LCD__RemapCharacter>:
    133c:	00 00 06    	return    

0000133e <_FCD_04071_LCD__Start>:
    133e:	e1 ff 2f    	mov.w     #0xfffe, w1
    1340:	20 2d 20    	mov.w     #0x2d2, w0
    1342:	10 88 60    	and.w     w1, [w0], [w0]
    1344:	b0 16 80    	mov.w     0x2d6, w0
    1346:	01 00 60    	and.w     w0, w1, w0
    1348:	a0 16 88    	mov.w     w0, 0x2d4
    134a:	d1 ff 2f    	mov.w     #0xfffd, w1
    134c:	20 2d 20    	mov.w     #0x2d2, w0
    134e:	10 88 60    	and.w     w1, [w0], [w0]
    1350:	b0 16 80    	mov.w     0x2d6, w0
    1352:	01 00 60    	and.w     w0, w1, w0
    1354:	a0 16 88    	mov.w     w0, 0x2d4
    1356:	b1 ff 2f    	mov.w     #0xfffb, w1
    1358:	20 2d 20    	mov.w     #0x2d2, w0
    135a:	10 88 60    	and.w     w1, [w0], [w0]
    135c:	b0 16 80    	mov.w     0x2d6, w0
    135e:	01 00 60    	and.w     w0, w1, w0
    1360:	a0 16 88    	mov.w     w0, 0x2d4
    1362:	71 ff 2f    	mov.w     #0xfff7, w1
    1364:	20 2d 20    	mov.w     #0x2d2, w0
    1366:	10 88 60    	and.w     w1, [w0], [w0]
    1368:	b0 16 80    	mov.w     0x2d6, w0
    136a:	01 00 60    	and.w     w0, w1, w0
    136c:	a0 16 88    	mov.w     w0, 0x2d4
    136e:	f1 ef 2f    	mov.w     #0xfeff, w1
    1370:	20 2d 20    	mov.w     #0x2d2, w0
    1372:	10 88 60    	and.w     w1, [w0], [w0]
    1374:	b0 16 80    	mov.w     0x2d6, w0
    1376:	01 00 60    	and.w     w0, w1, w0
    1378:	a0 16 88    	mov.w     w0, 0x2d4
    137a:	f1 df 2f    	mov.w     #0xfdff, w1
    137c:	20 2d 20    	mov.w     #0x2d2, w0
    137e:	10 88 60    	and.w     w1, [w0], [w0]
    1380:	b0 16 80    	mov.w     0x2d6, w0
    1382:	01 00 60    	and.w     w0, w1, w0
    1384:	a0 16 88    	mov.w     w0, 0x2d4
    1386:	00 5e 26    	mov.w     #0x65e0, w0
    1388:	51 00 20    	mov.w     #0x5, w1
    138a:	d8 f6 07    	rcall     0x13c <___delay32> <.init>
    138c:	80 40 eb    	clr.b     w1
    138e:	30 c3 b3    	mov.b     #0x33, w0
    1390:	46 fe 07    	rcall     0x101e <_FCD_04071_LCD__RawSend>
    1392:	00 65 2e    	mov.w     #0xe650, w0
    1394:	01 00 20    	mov.w     #0x0, w1
    1396:	d2 f6 07    	rcall     0x13c <___delay32> <.init>
    1398:	80 40 eb    	clr.b     w1
    139a:	30 c3 b3    	mov.b     #0x33, w0
    139c:	40 fe 07    	rcall     0x101e <_FCD_04071_LCD__RawSend>
    139e:	00 65 2e    	mov.w     #0xe650, w0
    13a0:	01 00 20    	mov.w     #0x0, w1
    13a2:	cc f6 07    	rcall     0x13c <___delay32> <.init>
    13a4:	80 40 eb    	clr.b     w1
    13a6:	20 c3 b3    	mov.b     #0x32, w0
    13a8:	3a fe 07    	rcall     0x101e <_FCD_04071_LCD__RawSend>
    13aa:	00 65 2e    	mov.w     #0xe650, w0
    13ac:	01 00 20    	mov.w     #0x0, w1
    13ae:	c6 f6 07    	rcall     0x13c <___delay32> <.init>
    13b0:	80 40 eb    	clr.b     w1
    13b2:	c0 c2 b3    	mov.b     #0x2c, w0
    13b4:	34 fe 07    	rcall     0x101e <_FCD_04071_LCD__RawSend>
    13b6:	00 65 2e    	mov.w     #0xe650, w0
    13b8:	01 00 20    	mov.w     #0x0, w1
    13ba:	c0 f6 07    	rcall     0x13c <___delay32> <.init>
    13bc:	80 40 eb    	clr.b     w1
    13be:	60 c0 b3    	mov.b     #0x6, w0
    13c0:	2e fe 07    	rcall     0x101e <_FCD_04071_LCD__RawSend>
    13c2:	00 65 2e    	mov.w     #0xe650, w0
    13c4:	01 00 20    	mov.w     #0x0, w1
    13c6:	ba f6 07    	rcall     0x13c <___delay32> <.init>
    13c8:	80 40 eb    	clr.b     w1
    13ca:	c0 c0 b3    	mov.b     #0xc, w0
    13cc:	28 fe 07    	rcall     0x101e <_FCD_04071_LCD__RawSend>
    13ce:	00 65 2e    	mov.w     #0xe650, w0
    13d0:	01 00 20    	mov.w     #0x0, w1
    13d2:	b4 f6 07    	rcall     0x13c <___delay32> <.init>
    13d4:	80 40 eb    	clr.b     w1
    13d6:	10 c0 b3    	mov.b     #0x1, w0
    13d8:	22 fe 07    	rcall     0x101e <_FCD_04071_LCD__RawSend>
    13da:	00 65 2e    	mov.w     #0xe650, w0
    13dc:	01 00 20    	mov.w     #0x0, w1
    13de:	ae f6 07    	rcall     0x13c <___delay32> <.init>
    13e0:	80 40 eb    	clr.b     w1
    13e2:	20 c0 b3    	mov.b     #0x2, w0
    13e4:	1c fe 07    	rcall     0x101e <_FCD_04071_LCD__RawSend>
    13e6:	00 65 2e    	mov.w     #0xe650, w0
    13e8:	01 00 20    	mov.w     #0x0, w1
    13ea:	a8 f6 07    	rcall     0x13c <___delay32> <.init>
    13ec:	68 ff 37    	bra       0x12be <_FCD_04071_LCD__Clear>

000013ee <_FCD_08f41_adc_base__RawSampleInt>:
    13ee:	10 c0 b3    	mov.b     #0x1, w0
    13f0:	54 fd 37    	bra       0xe9a <_FC_CAL_ADC_Sample>

000013f2 <_FCD_08f41_adc_base__RawAverageByte>:
    13f2:	88 9f be    	mov.d     w8, [w15++]
    13f4:	8a 9f be    	mov.d     w10, [w15++]
    13f6:	00 45 78    	mov.b     w0, w10
    13f8:	81 45 78    	mov.b     w1, w11
    13fa:	0b 04 e0    	cp0.b     w11
    13fc:	06 00 3a    	bra       NZ, 0x140a <.L229>
    13fe:	80 44 eb    	clr.b     w9
    1400:	00 04 eb    	clr.w     w8
    1402:	0a 04 e0    	cp0.b     w10
    1404:	12 00 3a    	bra       NZ, 0x142a <.L233>
    1406:	09 41 78    	mov.b     w9, w2
    1408:	17 00 37    	bra       0x1438 <.L231>

0000140a <.L229>:
    140a:	00 41 eb    	clr.b     w2
    140c:	00 04 eb    	clr.w     w8
    140e:	0a 04 e0    	cp0.b     w10
    1410:	13 00 32    	bra       Z, 0x1438 <.L231>
    1412:	82 44 78    	mov.b     w2, w9

00001414 <.L232>:
    1414:	00 40 eb    	clr.b     w0
    1416:	41 fd 07    	rcall     0xe9a <_FC_CAL_ADC_Sample>
    1418:	00 04 44    	add.w     w8, w0, w8
    141a:	89 44 e8    	inc.b     w9, w9
    141c:	0b 80 fb    	ze        w11, w0
    141e:	7d 00 b8    	mul.uu    w0, #0x1d, w0
    1420:	8d f6 07    	rcall     0x13c <___delay32> <.init>
    1422:	89 4f 55    	sub.b     w10, w9, [w15]
    1424:	f7 ff 3e    	bra       GTU, 0x1414 <.L232>
    1426:	0a 41 78    	mov.b     w10, w2
    1428:	07 00 37    	bra       0x1438 <.L231>

0000142a <.L233>:
    142a:	00 40 eb    	clr.b     w0
    142c:	36 fd 07    	rcall     0xe9a <_FC_CAL_ADC_Sample>
    142e:	00 04 44    	add.w     w8, w0, w8
    1430:	89 44 e8    	inc.b     w9, w9
    1432:	89 4f 55    	sub.b     w10, w9, [w15]
    1434:	fa ff 3e    	bra       GTU, 0x142a <.L233>
    1436:	0a 41 78    	mov.b     w10, w2

00001438 <.L231>:
    1438:	02 81 fb    	ze        w2, w2
    143a:	11 00 09    	repeat    #0x11
    143c:	02 84 d8    	div.uw    w8, w2
    143e:	4f 05 be    	mov.d     [--w15], w10
    1440:	4f 04 be    	mov.d     [--w15], w8
    1442:	00 00 06    	return    

00001444 <_FCD_08f41_adc_base__GetAverageByte>:
    1444:	88 9f be    	mov.d     w8, [w15++]
    1446:	80 44 78    	mov.b     w0, w9
    1448:	01 44 78    	mov.b     w1, w8
    144a:	83 c2 b3    	mov.b     #0x28, w3
    144c:	00 41 eb    	clr.b     w2
    144e:	31 c0 b3    	mov.b     #0x3, w1
    1450:	90 c0 b3    	mov.b     #0x9, w0
    1452:	fc fc 07    	rcall     0xe4c <_FC_CAL_ADC_Enable>
    1454:	88 40 78    	mov.b     w8, w1
    1456:	09 40 78    	mov.b     w9, w0
    1458:	cc ff 07    	rcall     0x13f2 <_FCD_08f41_adc_base__RawAverageByte>
    145a:	00 44 78    	mov.b     w0, w8
    145c:	2f fd 07    	rcall     0xebc <_FC_CAL_ADC_Disable>
    145e:	08 40 78    	mov.b     w8, w0
    1460:	4f 04 be    	mov.d     [--w15], w8
    1462:	00 00 06    	return    

00001464 <_FCD_08f41_adc_base__RawAverageInt>:
    1464:	88 9f be    	mov.d     w8, [w15++]
    1466:	8a 9f be    	mov.d     w10, [w15++]
    1468:	8c 1f 78    	mov.w     w12, [w15++]
    146a:	80 45 78    	mov.b     w0, w11
    146c:	01 46 78    	mov.b     w1, w12
    146e:	0c 04 e0    	cp0.b     w12
    1470:	06 00 3a    	bra       NZ, 0x147e <.L237>
    1472:	00 45 eb    	clr.b     w10
    1474:	60 44 b8    	mul.uu    w8, #0x0, w8
    1476:	0b 04 e0    	cp0.b     w11
    1478:	13 00 3a    	bra       NZ, 0x14a0 <.L241>
    147a:	0a 41 78    	mov.b     w10, w2
    147c:	19 00 37    	bra       0x14b0 <.L239>

0000147e <.L237>:
    147e:	00 41 eb    	clr.b     w2
    1480:	60 44 b8    	mul.uu    w8, #0x0, w8
    1482:	0b 04 e0    	cp0.b     w11
    1484:	15 00 32    	bra       Z, 0x14b0 <.L239>
    1486:	02 45 78    	mov.b     w2, w10

00001488 <.L240>:
    1488:	10 c0 b3    	mov.b     #0x1, w0
    148a:	07 fd 07    	rcall     0xe9a <_FC_CAL_ADC_Sample>
    148c:	08 04 40    	add.w     w0, w8, w8
    148e:	e0 84 4c    	addc.w    w9, #0x0, w9
    1490:	0a 45 e8    	inc.b     w10, w10
    1492:	0c 80 fb    	ze        w12, w0
    1494:	7d 00 b8    	mul.uu    w0, #0x1d, w0
    1496:	52 f6 07    	rcall     0x13c <___delay32> <.init>
    1498:	8a cf 55    	sub.b     w11, w10, [w15]
    149a:	f6 ff 3e    	bra       GTU, 0x1488 <.L240>
    149c:	0b 41 78    	mov.b     w11, w2
    149e:	08 00 37    	bra       0x14b0 <.L239>

000014a0 <.L241>:
    14a0:	10 c0 b3    	mov.b     #0x1, w0
    14a2:	fb fc 07    	rcall     0xe9a <_FC_CAL_ADC_Sample>
    14a4:	08 04 40    	add.w     w0, w8, w8
    14a6:	e0 84 4c    	addc.w    w9, #0x0, w9
    14a8:	0a 45 e8    	inc.b     w10, w10
    14aa:	8a cf 55    	sub.b     w11, w10, [w15]
    14ac:	f9 ff 3e    	bra       GTU, 0x14a0 <.L241>
    14ae:	0b 41 78    	mov.b     w11, w2

000014b0 <.L239>:
    14b0:	02 81 fb    	ze        w2, w2
    14b2:	80 01 eb    	clr.w     w3
    14b4:	08 00 be    	mov.d     w8, w0
    14b6:	88 f6 07    	rcall     0x1c8 <___udivsi3> <.libm>
    14b8:	4f 06 78    	mov.w     [--w15], w12
    14ba:	4f 05 be    	mov.d     [--w15], w10
    14bc:	4f 04 be    	mov.d     [--w15], w8
    14be:	00 00 06    	return    

000014c0 <_FCD_08f41_adc_base__GetAverageInt>:
    14c0:	88 9f be    	mov.d     w8, [w15++]
    14c2:	80 44 78    	mov.b     w0, w9
    14c4:	01 44 78    	mov.b     w1, w8
    14c6:	83 c2 b3    	mov.b     #0x28, w3
    14c8:	00 41 eb    	clr.b     w2
    14ca:	31 c0 b3    	mov.b     #0x3, w1
    14cc:	90 c0 b3    	mov.b     #0x9, w0
    14ce:	be fc 07    	rcall     0xe4c <_FC_CAL_ADC_Enable>
    14d0:	88 40 78    	mov.b     w8, w1
    14d2:	09 40 78    	mov.b     w9, w0
    14d4:	c7 ff 07    	rcall     0x1464 <_FCD_08f41_adc_base__RawAverageInt>
    14d6:	00 04 78    	mov.w     w0, w8
    14d8:	f1 fc 07    	rcall     0xebc <_FC_CAL_ADC_Disable>
    14da:	08 00 78    	mov.w     w8, w0
    14dc:	4f 04 be    	mov.d     [--w15], w8
    14de:	00 00 06    	return    

000014e0 <_FCD_08f41_adc_base__GetVoltage>:
    14e0:	88 1f 78    	mov.w     w8, [w15++]
    14e2:	83 c2 b3    	mov.b     #0x28, w3
    14e4:	00 41 eb    	clr.b     w2
    14e6:	31 c0 b3    	mov.b     #0x3, w1
    14e8:	90 c0 b3    	mov.b     #0x9, w0
    14ea:	b0 fc 07    	rcall     0xe4c <_FC_CAL_ADC_Enable>
    14ec:	10 c0 b3    	mov.b     #0x1, w0
    14ee:	d5 fc 07    	rcall     0xe9a <_FC_CAL_ADC_Sample>
    14f0:	00 04 78    	mov.w     w0, w8
    14f2:	e4 fc 07    	rcall     0xebc <_FC_CAL_ADC_Disable>
    14f4:	61 40 b8    	mul.uu    w8, #0x1, w0
    14f6:	a9 f7 07    	rcall     0x44a <___floatunsisf> <.libm>
    14f8:	aa f7 07    	rcall     0x44e <___extendsfdf2> <.libm>
    14fa:	14 d8 2e    	mov.w     #0xed81, w4
    14fc:	05 46 2c    	mov.w     #0xc460, w5
    14fe:	e6 13 20    	mov.w     #0x13e, w6
    1500:	47 f5 23    	mov.w     #0x3f54, w7
    1502:	72 f6 07    	rcall     0x1e8 <___muldf3> <.libm>
    1504:	4f 04 78    	mov.w     [--w15], w8
    1506:	00 00 06    	return    

00001508 <_FCD_08f41_adc_base__GetString>:
    1508:	88 9f be    	mov.d     w8, [w15++]
    150a:	80 04 78    	mov.w     w0, w9
    150c:	01 04 78    	mov.w     w1, w8
    150e:	e8 ff 07    	rcall     0x14e0 <_FCD_08f41_adc_base__GetVoltage>
    1510:	08 03 78    	mov.w     w8, w6
    1512:	89 02 78    	mov.w     w9, w5
    1514:	64 c0 b3    	mov.b     #0x6, w4
    1516:	63 fb 07    	rcall     0xbde <_FCI_FLOAT_TO_STRING>
    1518:	4f 04 be    	mov.d     [--w15], w8
    151a:	00 00 06    	return    

0000151c <_FCD_08f41_adc_base__RawEnable>:
    151c:	83 c2 b3    	mov.b     #0x28, w3
    151e:	00 41 eb    	clr.b     w2
    1520:	31 c0 b3    	mov.b     #0x3, w1
    1522:	90 c0 b3    	mov.b     #0x9, w0
    1524:	93 fc 37    	bra       0xe4c <_FC_CAL_ADC_Enable>

00001526 <_FCD_08f41_adc_base__RawSampleByte>:
    1526:	00 40 eb    	clr.b     w0
    1528:	b8 fc 37    	bra       0xe9a <_FC_CAL_ADC_Sample>

0000152a <_FCD_08f41_adc_base__GetInt>:
    152a:	88 1f 78    	mov.w     w8, [w15++]
    152c:	83 c2 b3    	mov.b     #0x28, w3
    152e:	00 41 eb    	clr.b     w2
    1530:	31 c0 b3    	mov.b     #0x3, w1
    1532:	90 c0 b3    	mov.b     #0x9, w0
    1534:	8b fc 07    	rcall     0xe4c <_FC_CAL_ADC_Enable>
    1536:	10 c0 b3    	mov.b     #0x1, w0
    1538:	b0 fc 07    	rcall     0xe9a <_FC_CAL_ADC_Sample>
    153a:	00 04 78    	mov.w     w0, w8
    153c:	bf fc 07    	rcall     0xebc <_FC_CAL_ADC_Disable>
    153e:	08 00 78    	mov.w     w8, w0
    1540:	4f 04 78    	mov.w     [--w15], w8
    1542:	00 00 06    	return    

00001544 <_FCD_08f41_adc_base__RawDisable>:
    1544:	bb fc 37    	bra       0xebc <_FC_CAL_ADC_Disable>

00001546 <_FCD_08f41_adc_base__GetByte>:
    1546:	88 1f 78    	mov.w     w8, [w15++]
    1548:	83 c2 b3    	mov.b     #0x28, w3
    154a:	00 41 eb    	clr.b     w2
    154c:	31 c0 b3    	mov.b     #0x3, w1
    154e:	90 c0 b3    	mov.b     #0x9, w0
    1550:	7d fc 07    	rcall     0xe4c <_FC_CAL_ADC_Enable>
    1552:	00 40 eb    	clr.b     w0
    1554:	a2 fc 07    	rcall     0xe9a <_FC_CAL_ADC_Sample>
    1556:	00 04 78    	mov.w     w0, w8
    1558:	b1 fc 07    	rcall     0xebc <_FC_CAL_ADC_Disable>
    155a:	08 40 78    	mov.b     w8, w0
    155c:	4f 04 78    	mov.w     [--w15], w8
    155e:	00 00 06    	return    

00001560 <_FCM_Timer2_Interrupt>:
    1560:	d4 ff 2f    	mov.w     #0xfffd, w4
    1562:	60 2c 20    	mov.w     #0x2c6, w0
    1564:	10 08 62    	and.w     w4, [w0], [w0]
    1566:	51 16 80    	mov.w     0x2ca, w1
    1568:	01 10 a0    	bset.w    w1, #0x1
    156a:	41 16 88    	mov.w     w1, 0x2c8
    156c:	41 85 20    	mov.w     #0x854, w1
    156e:	91 40 78    	mov.b     [w1], w1
    1570:	63 42 80    	mov.w     0x84c, w3
    1572:	92 42 80    	mov.w     0x852, w2
    1574:	81 80 fb    	ze        w1, w1
    1576:	83 80 40    	add.w     w1, w3, w1
    1578:	11 00 09    	repeat    #0x11
    157a:	82 80 d8    	div.uw    w1, w2
    157c:	01 40 78    	mov.b     w1, w0
    157e:	54 e8 b7    	mov.b     WREG, 0x854
    1580:	41 85 20    	mov.w     #0x854, w1
    1582:	91 40 78    	mov.b     [w1], w1
    1584:	81 80 fb    	ze        w1, w1
    1586:	81 80 40    	add.w     w1, w1, w1
    1588:	a2 7d 28    	mov.w     #0x87da, w2
    158a:	62 81 78    	mov.w     [w2+w1], w2
    158c:	72 42 88    	mov.w     w2, 0x84e
    158e:	62 2c 20    	mov.w     #0x2c6, w2
    1590:	12 09 62    	and.w     w4, [w2], [w2]
    1592:	50 16 80    	mov.w     0x2ca, w0
    1594:	04 00 60    	and.w     w0, w4, w0
    1596:	40 16 88    	mov.w     w0, 0x2c8
    1598:	00 00 06    	return    

0000159a <_FCM_timer3_interrupt>:
    159a:	c6 42 a9    	bclr.b    0x2c6, #0x2
    159c:	50 16 80    	mov.w     0x2ca, w0
    159e:	00 20 a0    	bset.w    w0, #0x2
    15a0:	40 16 88    	mov.w     w0, 0x2c8
    15a2:	25 ff 07    	rcall     0x13ee <_FCD_08f41_adc_base__RawSampleInt>
    15a4:	00 40 88    	mov.w     w0, 0x800
    15a6:	00 40 80    	mov.w     0x800, w0
    15a8:	47 00 de    	lsr.w     w0, #0x7, w0
    15aa:	00 40 88    	mov.w     w0, 0x800
    15ac:	00 28 ec    	inc.w     0x800
    15ae:	90 41 80    	mov.w     0x832, w0
    15b0:	00 08 e3    	cp.w      0x800
    15b2:	0b 00 32    	bra       Z, 0x15ca <.L253>
    15b4:	00 08 f8    	push      0x800
    15b6:	32 08 f9    	pop       0x832
    15b8:	41 c1 b3    	mov.b     #0x14, w1
    15ba:	00 40 eb    	clr.b     w0
    15bc:	36 fe 07    	rcall     0x122a <_FCD_04071_LCD__Cursor>
    15be:	10 c0 b3    	mov.b     #0x1, w0
    15c0:	3e fe 07    	rcall     0x123e <_FCD_04071_LCD__ClearLine>
    15c2:	60 42 80    	mov.w     0x84c, w0
    15c4:	80 00 eb    	clr.w     w1
    15c6:	12 c0 b3    	mov.b     #0x1, w2
    15c8:	61 fe 07    	rcall     0x128c <_FCD_04071_LCD__PrintFormattedNumber>

000015ca <.L253>:
    15ca:	00 08 f8    	push      0x800
    15cc:	4c 08 f9    	pop       0x84c
    15ce:	b1 ff 2f    	mov.w     #0xfffb, w1
    15d0:	60 2c 20    	mov.w     #0x2c6, w0
    15d2:	10 88 60    	and.w     w1, [w0], [w0]
    15d4:	50 16 80    	mov.w     0x2ca, w0
    15d6:	01 00 60    	and.w     w0, w1, w0
    15d8:	40 16 88    	mov.w     w0, 0x2c8
    15da:	00 00 06    	return    

000015dc <_FCM_Write_DAC>:
    15dc:	88 9f be    	mov.d     w8, [w15++]
    15de:	80 04 78    	mov.w     w0, w9
    15e0:	d8 ff 2f    	mov.w     #0xfffd, w8
    15e2:	e0 2d 20    	mov.w     #0x2de, w0
    15e4:	10 08 64    	and.w     w8, [w0], [w0]
    15e6:	10 17 80    	mov.w     0x2e2, w0
    15e8:	08 00 60    	and.w     w0, w8, w0
    15ea:	00 17 88    	mov.w     w0, 0x2e0
    15ec:	00 40 eb    	clr.b     w0
    15ee:	12 fd 07    	rcall     0x1014 <_FCD_06c41_SPI_Master1__SendChar>
    15f0:	48 48 de    	lsr.w     w9, #0x8, w0
    15f2:	10 fd 07    	rcall     0x1014 <_FCD_06c41_SPI_Master1__SendChar>
    15f4:	09 40 78    	mov.b     w9, w0
    15f6:	0e fd 07    	rcall     0x1014 <_FCD_06c41_SPI_Master1__SendChar>
    15f8:	e0 2d 20    	mov.w     #0x2de, w0
    15fa:	10 08 64    	and.w     w8, [w0], [w0]
    15fc:	10 17 80    	mov.w     0x2e2, w0
    15fe:	00 10 a0    	bset.w    w0, #0x1
    1600:	00 17 88    	mov.w     w0, 0x2e0
    1602:	4f 04 be    	mov.d     [--w15], w8
    1604:	00 00 06    	return    

00001606 <_FCM_Timer1_Interrupt>:
    1606:	88 1f 78    	mov.w     w8, [w15++]
    1608:	e8 ff 2f    	mov.w     #0xfffe, w8
    160a:	60 2c 20    	mov.w     #0x2c6, w0
    160c:	10 08 64    	and.w     w8, [w0], [w0]
    160e:	50 16 80    	mov.w     0x2ca, w0
    1610:	00 00 a0    	bset.w    w0, #0x0
    1612:	40 16 88    	mov.w     w0, 0x2c8
    1614:	4e 08 f8    	push      0x84e
    1616:	30 08 f9    	pop       0x830
    1618:	80 41 80    	mov.w     0x830, w0
    161a:	e0 ff 07    	rcall     0x15dc <_FCM_Write_DAC>
    161c:	60 2c 20    	mov.w     #0x2c6, w0
    161e:	10 08 64    	and.w     w8, [w0], [w0]
    1620:	50 16 80    	mov.w     0x2ca, w0
    1622:	08 00 60    	and.w     w0, w8, w0
    1624:	40 16 88    	mov.w     w0, 0x2c8
    1626:	4f 04 78    	mov.w     [--w15], w8
    1628:	00 00 06    	return    

0000162a <_main>:
    162a:	88 1f 78    	mov.w     w8, [w15++]
    162c:	00 84 eb    	setm.w    w8
    162e:	48 15 88    	mov.w     w8, 0x2a8
    1630:	75 ff 07    	rcall     0x151c <_FCD_08f41_adc_base__RawEnable>
    1632:	f4 fc 07    	rcall     0x101c <_FCD_06c41_SPI_Master1__Initialise>
    1634:	84 fe 07    	rcall     0x133e <_FCD_04071_LCD__Start>
    1636:	01 01 20    	mov.w     #0x10, w1
    1638:	90 7c 28    	mov.w     #0x87c9, w0
    163a:	16 fe 07    	rcall     0x1268 <_FCD_04071_LCD__PrintString>
    163c:	41 c1 b3    	mov.b     #0x14, w1
    163e:	00 40 eb    	clr.b     w0
    1640:	f4 fd 07    	rcall     0x122a <_FCD_04071_LCD__Cursor>
    1642:	60 42 80    	mov.w     0x84c, w0
    1644:	80 00 eb    	clr.w     w1
    1646:	12 c0 b3    	mov.b     #0x1, w2
    1648:	21 fe 07    	rcall     0x128c <_FCD_04071_LCD__PrintFormattedNumber>
    164a:	54 68 ef    	clr.b     0x854
    164c:	81 e0 a8    	bset.b    0x81, #0x7
    164e:	95 80 a8    	bset.b    0x95, #0x4
    1650:	95 a0 a8    	bset.b    0x95, #0x5
    1652:	95 c0 a8    	bset.b    0x95, #0x6
    1654:	97 00 a8    	bset.b    0x97, #0x0
    1656:	97 20 a8    	bset.b    0x97, #0x1
    1658:	97 40 a9    	bclr.b    0x97, #0x2
    165a:	97 80 a8    	bset.b    0x97, #0x4
    165c:	97 a0 a9    	bclr.b    0x97, #0x5
    165e:	97 c0 a9    	bclr.b    0x97, #0x6
    1660:	81 e0 a9    	bclr.b    0x81, #0x7
    1662:	d2 ff 27    	mov.w     #0x7ffd, w2
    1664:	21 08 80    	mov.w     0x104, w1
    1666:	01 00 61    	and.w     w2, w1, w0
    1668:	01 00 28    	mov.w     #0x8000, w1
    166a:	00 80 70    	ior.w     w1, w0, w0
    166c:	20 08 88    	mov.w     w0, 0x104
    166e:	f0 f0 2f    	mov.w     #0xff0f, w0
    1670:	04 21 b6    	and.w     0x104
    1672:	53 26 20    	mov.w     #0x265, w3
    1674:	13 08 88    	mov.w     w3, 0x102
    1676:	8c 60 a8    	bset.b    0x8c, #0x3
    1678:	84 08 80    	mov.w     0x110, w4
    167a:	84 01 61    	and.w     w2, w4, w3
    167c:	83 81 70    	ior.w     w1, w3, w3
    167e:	83 08 88    	mov.w     w3, 0x110
    1680:	10 21 b6    	and.w     0x110
    1682:	13 33 21    	mov.w     #0x1331, w3
    1684:	63 08 88    	mov.w     w3, 0x10c
    1686:	8c c0 a8    	bset.b    0x8c, #0x6
    1688:	93 08 80    	mov.w     0x112, w3
    168a:	03 01 61    	and.w     w2, w3, w2
    168c:	02 81 70    	ior.w     w1, w2, w2
    168e:	92 08 88    	mov.w     w2, 0x112
    1690:	12 01 b6    	and.w     0x112, WREG
    1692:	00 50 a0    	bset.w    w0, #0x5
    1694:	90 08 88    	mov.w     w0, 0x112
    1696:	78 08 88    	mov.w     w8, 0x10e
    1698:	8c e0 a8    	bset.b    0x8c, #0x7

0000169a <.L257>:
    169a:	ff ff 37    	bra       .

0000169c <__T1Interrupt>:
    169c:	36 00 f8    	push      0x36
    169e:	80 9f be    	mov.d     w0, [w15++]
    16a0:	82 9f be    	mov.d     w2, [w15++]
    16a2:	84 9f be    	mov.d     w4, [w15++]
    16a4:	86 9f be    	mov.d     w6, [w15++]
    16a6:	34 00 f8    	push      0x34
    16a8:	00 00 20    	mov.w     #0x0, w0
    16aa:	a0 01 88    	mov.w     w0, 0x34
    16ac:	84 60 a9    	bclr.b    0x84, #0x3
    16ae:	ab ff 07    	rcall     0x1606 <_FCM_Timer1_Interrupt>
    16b0:	34 00 f9    	pop       0x34
    16b2:	4f 03 be    	mov.d     [--w15], w6
    16b4:	4f 02 be    	mov.d     [--w15], w4
    16b6:	4f 01 be    	mov.d     [--w15], w2
    16b8:	4f 00 be    	mov.d     [--w15], w0
    16ba:	36 00 f9    	pop       0x36
    16bc:	00 40 06    	retfie    

000016be <__T2Interrupt>:
    16be:	36 00 f8    	push      0x36
    16c0:	80 9f be    	mov.d     w0, [w15++]
    16c2:	82 9f be    	mov.d     w2, [w15++]
    16c4:	84 9f be    	mov.d     w4, [w15++]
    16c6:	86 9f be    	mov.d     w6, [w15++]
    16c8:	34 00 f8    	push      0x34
    16ca:	00 00 20    	mov.w     #0x0, w0
    16cc:	a0 01 88    	mov.w     w0, 0x34
    16ce:	84 c0 a9    	bclr.b    0x84, #0x6
    16d0:	47 ff 07    	rcall     0x1560 <_FCM_Timer2_Interrupt>
    16d2:	34 00 f9    	pop       0x34
    16d4:	4f 03 be    	mov.d     [--w15], w6
    16d6:	4f 02 be    	mov.d     [--w15], w4
    16d8:	4f 01 be    	mov.d     [--w15], w2
    16da:	4f 00 be    	mov.d     [--w15], w0
    16dc:	36 00 f9    	pop       0x36
    16de:	00 40 06    	retfie    

000016e0 <__T3Interrupt>:
    16e0:	36 00 f8    	push      0x36
    16e2:	80 9f be    	mov.d     w0, [w15++]
    16e4:	82 9f be    	mov.d     w2, [w15++]
    16e6:	84 9f be    	mov.d     w4, [w15++]
    16e8:	86 9f be    	mov.d     w6, [w15++]
    16ea:	34 00 f8    	push      0x34
    16ec:	00 00 20    	mov.w     #0x0, w0
    16ee:	a0 01 88    	mov.w     w0, 0x34
    16f0:	84 e0 a9    	bclr.b    0x84, #0x7
    16f2:	53 ff 07    	rcall     0x159a <_FCM_timer3_interrupt>
    16f4:	34 00 f9    	pop       0x34
    16f6:	4f 03 be    	mov.d     [--w15], w6
    16f8:	4f 02 be    	mov.d     [--w15], w4
    16fa:	4f 01 be    	mov.d     [--w15], w2
    16fc:	4f 00 be    	mov.d     [--w15], w0
    16fe:	36 00 f9    	pop       0x36
    1700:	00 40 06    	retfie    
Disassembly of section .dinit:

00001702 <.dinit>:
    1702:	46 08 00    	nop       
    1704:	14 00 00    	nop       
    1706:	02 00 00    	nop       
    1708:	ff 1f 64    	and.w     w8, #0x1f, [w15++]
    170a:	00 01 00    	nop       
    170c:	01 00 01    	call      w1
    170e:	00 e0 01    	.pword 0x01e000
    1710:	65 00 01    	call      w5
    1712:	00 ff 1f    	.pword 0x1fff00
    1714:	0c 00 00    	nop       
    1716:	00 08 00    	nop       
    1718:	46 00 00    	nop       
	...
